(dp0
S'METTS MARK'
p1
(dp2
S'to_messages'
p3
I807
sS'deferral_payments'
p4
S'NaN'
p5
sS'fraction_exercised_stock_options'
p6
F0.0
sS'expenses'
p7
I94299
sS'poi'
p8
I00
sS'deferred_income'
p9
g5
sS'email_address'
p10
S'mark.metts@enron.com'
p11
sS'long_term_incentive'
p12
g5
sS'fraction_expenses'
p13
F0.08880825219174121
sS'poi_email_to_fraction'
p14
F0.034482758620689655
sS'restricted_stock_deferred'
p15
g5
sS'shared_receipt_with_poi'
p16
I702
sS'loan_advances'
p17
g5
sS'from_messages'
p18
I29
sS'other'
p19
I1740
sS'fraction_restricted_stock'
p20
F1.0
sS'director_fees'
p21
g5
sS'fraction_loan_advances'
p22
F0.0
sS'bonus'
p23
I600000
sS'total_stock_value'
p24
I585062
sS'from_poi_to_this_person'
p25
I38
sS'fraction_bonus'
p26
F0.5650638004119315
sS'from_this_person_to_poi'
p27
I1
sS'fraction_other'
p28
F0.0016386850211946014
sS'restricted_stock'
p29
I585062
sS'salary'
p30
I365788
sS'total_payments'
p31
I1061827
sS'exercised_stock_options'
p32
g5
sS'fraction_salary'
p33
F0.34448926237513267
ssS'BAXTER JOHN C'
p34
(dp35
g3
g5
sg4
I1295738
sS'fraction_exercised_stock_options'
p36
F0.6288601858299968
sg7
I11200
sg8
I00
sg9
I-1386055
sg10
g5
sg12
I1586055
sS'fraction_expenses'
p37
F0.001987809403864834
sg14
S'NaN'
p38
sg15
g5
sS'poi_email_from_fraction'
p39
g38
sg16
g5
sg17
g5
sg18
g5
sg19
I2660303
sS'fraction_restricted_stock'
p40
F0.3711398141700032
sg21
g5
sS'fraction_loan_advances'
p41
F0.0
sg23
I1200000
sg24
I10623258
sg25
g5
sS'fraction_bonus'
p42
F0.21297957898551792
sg27
g5
sS'fraction_other'
p43
F0.4721585107615919
sg29
I3942714
sg30
I267102
sg31
I5634343
sS'poi_email_total_fraction'
p44
g38
sg32
I6680544
sS'fraction_salary'
p45
F0.047406059588491506
ssS'ELLIOTT STEVEN'
p46
(dp47
g3
g5
sg4
g5
sS'fraction_exercised_stock_options'
p48
F0.7322260877246963
sg7
I78552
sg8
I00
sg9
I-400729
sg10
S'steven.elliott@enron.com'
p49
sg12
g5
sS'fraction_expenses'
p50
F0.371009564293305
sg14
g38
sg15
g5
sg39
g38
sg16
g5
sg17
g5
sg18
g5
sg19
I12961
sS'fraction_restricted_stock'
p51
F0.2677739122753036
sg21
g5
sS'fraction_loan_advances'
p52
F0.0
sg23
I350000
sg24
I6678735
sg25
g5
sS'fraction_bonus'
p53
F1.6530877317274766
sg27
g5
sS'fraction_other'
p54
F0.06121620025977093
sg29
I1788391
sg30
I170941
sg31
I211725
sg44
g38
sg32
I4890344
sS'fraction_salary'
p55
F0.8073727712835046
ssS'CORDES WILLIAM R'
p56
(dp57
g3
I764
sg4
g5
sS'fraction_exercised_stock_options'
p58
F0.6278746080900803
sg7
g5
sg8
I00
sg9
g5
sg10
S'bill.cordes@enron.com'
p59
sg12
g5
sS'fraction_expenses'
p60
F0.0
sg14
F0.0
sg15
g5
sg16
I58
sg17
g5
sg18
I12
sg19
g5
sS'fraction_restricted_stock'
p61
F0.3721253919099197
sg21
g5
sS'fraction_loan_advances'
p62
F0.0
sg23
g5
sg24
I1038185
sg25
I10
sS'fraction_bonus'
p63
F0.0
sg27
I0
sS'fraction_other'
p64
F0.0
sg29
I386335
sg30
g5
sg31
g5
sg32
I651850
sS'fraction_salary'
p65
F0.0
ssS'HANNON KEVIN P'
p66
(dp67
g3
I1045
sg4
g5
sS'fraction_exercised_stock_options'
p68
F0.8665224027607292
sg7
I34039
sg8
I01
sg9
I-3117011
sg10
S'kevin.hannon@enron.com'
p69
sg12
I1617011
sS'fraction_expenses'
p70
F0.11791175064603959
sg14
F0.65625
sg15
g5
sg16
I1035
sg17
g5
sg18
I32
sg19
I11350
sS'fraction_restricted_stock'
p71
F0.13347759723927077
sg21
g5
sS'fraction_loan_advances'
p72
F0.0
sg23
I1500000
sg24
I6391065
sg25
I32
sS'fraction_bonus'
p73
F5.196028848352166
sg27
I21
sS'fraction_other'
p74
F0.039316618285864725
sg29
I853064
sg30
I243293
sg31
I288682
sg32
I5538001
sS'fraction_salary'
p75
F0.8427716310680957
ssS'MORDAUNT KRISTINA M'
p76
(dp77
g3
g5
sg4
g5
sS'fraction_exercised_stock_options'
p78
F0.0
sg7
I35018
sg8
I00
sg9
g5
sg10
S'kristina.mordaunt@enron.com'
p79
sg12
g5
sS'fraction_expenses'
p80
F0.05571483575753912
sg14
g38
sg15
g5
sg39
g38
sg16
g5
sg17
g5
sg18
g5
sg19
I1411
sS'fraction_restricted_stock'
p81
F1.0
sg21
g5
sS'fraction_loan_advances'
p82
F0.0
sg23
I325000
sg24
I208510
sg25
g5
sS'fraction_bonus'
p83
F0.5170861163173286
sg27
g5
sS'fraction_other'
p84
F0.002244949261919233
sg29
I208510
sg30
I267093
sg31
I628522
sg44
g38
sg32
g5
sS'fraction_salary'
p85
F0.42495409866321304
ssS'MEYER ROCKFORD G'
p86
(dp87
g3
I232
sg4
I1848227
sS'fraction_exercised_stock_options'
p88
F0.5162704668925684
sg7
g5
sg8
I00
sg9
g5
sg10
S'rockford.meyer@enron.com'
p89
sg12
g5
sS'fraction_expenses'
p90
F0.0
sg14
F0.0
sg15
g5
sg16
I22
sg17
g5
sg18
I28
sg19
g5
sS'fraction_restricted_stock'
p91
F0.4837295331074316
sg21
g5
sS'fraction_loan_advances'
p92
F0.0
sg23
g5
sg24
I955873
sg25
I0
sS'fraction_bonus'
p93
F0.0
sg27
I0
sS'fraction_other'
p94
F0.0
sg29
I462384
sg30
g5
sg31
I1848227
sg32
I493489
sS'fraction_salary'
p95
F0.0
ssS'MCMAHON JEFFREY'
p96
(dp97
g3
I2355
sg4
g5
sS'fraction_exercised_stock_options'
p98
F0.6639508556067727
sg7
I137108
sg8
I00
sg9
g5
sg10
S'jeffrey.mcmahon@enron.com'
p99
sg12
I694862
sS'fraction_expenses'
p100
F0.033442843514918275
sg14
F0.5416666666666666
sg15
g5
sg16
I2228
sg17
g5
sg18
I48
sg19
I297353
sS'fraction_restricted_stock'
p101
F0.3360491443932273
sg21
g5
sS'fraction_loan_advances'
p102
F0.0
sg23
I2600000
sg24
I1662855
sg25
I58
sS'fraction_bonus'
p103
F0.6341817628350461
sg27
I26
sS'fraction_other'
p104
F0.07252917297088057
sg29
I558801
sg30
I370448
sg31
I4099771
sg32
I1104054
sS'fraction_salary'
p105
F0.09035821756873738
ssS'HORTON STANLEY C'
p106
(dp107
g3
I2350
sg4
I3131860
sS'fraction_exercised_stock_options'
p108
F0.7180407538025821
sg7
g5
sg8
I00
sg9
g5
sg10
S'stanley.horton@enron.com'
p109
sg12
g5
sS'fraction_expenses'
p110
F0.0
sg14
F0.013979496738117428
sg15
g5
sg16
I1074
sg17
g5
sg18
I1073
sg19
g5
sS'fraction_restricted_stock'
p111
F0.28195924619741786
sg21
g5
sS'fraction_loan_advances'
p112
F0.0
sg23
g5
sg24
I7256648
sg25
I44
sS'fraction_bonus'
p113
F0.0
sg27
I15
sS'fraction_other'
p114
F0.0
sg29
I2046079
sg30
g5
sg31
I3131860
sg32
I5210569
sS'fraction_salary'
p115
F0.0
ssS'PIPER GREGORY F'
p116
(dp117
g3
I1238
sg4
I1130036
sS'fraction_exercised_stock_options'
p118
F1.0
sg7
I43057
sg8
I00
sg9
I-33333
sg10
S'greg.piper@enron.com'
p119
sg12
g5
sS'fraction_expenses'
p120
F0.024779167474760146
sg14
F0.21621621621621623
sg15
I-409554
sg16
I742
sg17
g5
sg18
I222
sg19
I778
sS'fraction_restricted_stock'
p121
F0.46524895204989264
sg21
g5
sS'fraction_loan_advances'
p122
F0.0
sg23
I400000
sg24
I880290
sg25
I61
sS'fraction_bonus'
p123
F0.23019873632403695
sg27
I48
sS'fraction_other'
p124
F0.00044773654215025184
sg29
I409554
sg30
I197091
sg31
I1737629
sg32
I880290
sS'fraction_salary'
p125
F0.11342524785210191
ssS'HUMPHREY GENE E'
p126
(dp127
g3
I128
sg4
I2964506
sS'fraction_exercised_stock_options'
p128
F1.0
sg7
I4994
sg8
I00
sg9
g5
sg10
S'gene.humphrey@enron.com'
p129
sg12
g5
sS'fraction_expenses'
p130
F0.0016108513449350757
sg14
F1.0
sg15
g5
sg16
I119
sg17
g5
sg18
I17
sg19
g5
sS'fraction_restricted_stock'
p131
F0.0
sg21
g5
sS'fraction_loan_advances'
p132
F0.0
sg23
g5
sg24
I2282768
sg25
I10
sS'fraction_bonus'
p133
F0.0
sg27
I17
sS'fraction_other'
p134
F0.0
sg29
g5
sg30
I130724
sg31
I3100224
sg32
I2282768
sS'fraction_salary'
p135
F0.04216598542556925
ssS'UMANOFF ADAM S'
p136
(dp137
g3
I111
sg4
g5
sS'fraction_exercised_stock_options'
p138
F0.0
sg7
I53122
sg8
I00
sg9
g5
sg10
S'adam.umanoff@enron.com'
p139
sg12
g5
sS'fraction_expenses'
p140
F0.04699144862140313
sg14
F0.0
sg15
g5
sg16
I41
sg17
g5
sg18
I18
sg19
g5
sS'fraction_restricted_stock'
p141
F0.0
sg21
g5
sS'fraction_loan_advances'
p142
F0.0
sg23
I788750
sg24
g5
sg25
I12
sS'fraction_bonus'
p143
F0.6977242027809893
sg27
I0
sS'fraction_other'
p144
F0.0
sg29
g5
sg30
I288589
sg31
I1130461
sg32
g5
sS'fraction_salary'
p145
F0.2552843485976075
ssS'BLACHMAN JEREMY M'
p146
(dp147
g3
I2475
sg4
g5
sS'fraction_exercised_stock_options'
p148
F0.8019173178925221
sg7
I84208
sg8
I00
sg9
g5
sg10
S'jeremy.blachman@enron.com'
p149
sg12
I831809
sS'fraction_expenses'
p150
F0.04179399305650339
sg14
F0.14285714285714285
sg15
g5
sg16
I2326
sg17
g5
sg18
I14
sg19
I272
sS'fraction_restricted_stock'
p151
F0.19808268210747793
sg21
g5
sS'fraction_loan_advances'
p152
F0.0
sg23
I850000
sg24
I954354
sg25
I25
sS'fraction_bonus'
p153
F0.4218707735372872
sg27
I2
sS'fraction_other'
p154
F0.0001349986475319319
sg29
I189041
sg30
I248546
sg31
I2014835
sg32
I765313
sS'fraction_salary'
p155
F0.12335799209364538
ssS'SUNDE MARTIN'
p156
(dp157
g3
I2647
sg4
g5
sS'fraction_exercised_stock_options'
p158
F0.0
sg7
g5
sg8
I00
sg9
g5
sg10
S'marty.sunde@enron.com'
p159
sg12
I476451
sS'fraction_expenses'
p160
F0.0
sg14
F0.34210526315789475
sg15
g5
sg16
I2565
sg17
g5
sg18
I38
sg19
I111122
sS'fraction_restricted_stock'
p161
F1.0
sg21
g5
sS'fraction_loan_advances'
p162
F0.0
sg23
I700000
sg24
I698920
sg25
I37
sS'fraction_bonus'
p163
F0.4530571324460749
sg27
I13
sS'fraction_other'
p164
F0.07192087810238962
sg29
I698920
sg30
I257486
sg31
I1545059
sg32
g5
sS'fraction_salary'
p165
F0.16665124115001434
ssS'GIBBS DANA R'
p166
(dp167
g3
I169
sg4
I504610
sS'fraction_exercised_stock_options'
p168
F1.0
sg7
g5
sg8
I00
sg9
g5
sg10
S'dana.gibbs@enron.com'
p169
sg12
I461912
sS'fraction_expenses'
p170
F0.0
sg14
F0.0
sg15
g5
sg16
I23
sg17
g5
sg18
I12
sg19
g5
sS'fraction_restricted_stock'
p171
F0.0
sg21
g5
sS'fraction_loan_advances'
p172
F0.0
sg23
g5
sg24
I2218275
sg25
I0
sS'fraction_bonus'
p173
F0.0
sg27
I0
sS'fraction_other'
p174
F0.0
sg29
g5
sg30
g5
sg31
I966522
sg32
I2218275
sS'fraction_salary'
p175
F0.0
ssS'LOWRY CHARLES P'
p176
(dp177
g3
g5
sg4
g5
sS'fraction_exercised_stock_options'
p178
F1.0
sg7
g5
sg8
I00
sg9
g5
sg10
g5
sg12
g5
sS'fraction_expenses'
p179
F0.0
sg14
g38
sg15
I-153686
sg39
g38
sg16
g5
sg17
g5
sg18
g5
sg19
g5
sS'fraction_restricted_stock'
p180
F0.41290686584006125
sg21
g5
sS'fraction_loan_advances'
p181
F0.0
sg23
g5
sg24
I372205
sg25
g5
sS'fraction_bonus'
p182
F0.0
sg27
g5
sS'fraction_other'
p183
F0.0
sg29
I153686
sg30
g5
sg31
g5
sg44
g38
sg32
I372205
sS'fraction_salary'
p184
F0.0
ssS'COLWELL WESLEY'
p185
(dp186
g3
I1758
sg4
I27610
sS'fraction_exercised_stock_options'
p187
F0.0
sg7
I16514
sg8
I01
sg9
I-144062
sg10
S'wes.colwell@enron.com'
p188
sg12
g5
sS'fraction_expenses'
p189
F0.011080663256268351
sg14
F0.275
sg15
g5
sg16
I1132
sg17
g5
sg18
I40
sg19
I101740
sS'fraction_restricted_stock'
p190
F1.0
sg21
g5
sS'fraction_loan_advances'
p191
F0.0
sg23
I1200000
sg24
I698242
sg25
I240
sS'fraction_bonus'
p192
F0.8051832328643588
sg27
I11
sS'fraction_other'
p193
F0.06826611842634989
sg29
I698242
sg30
I288542
sg31
I1490344
sg32
g5
sS'fraction_salary'
p194
F0.19360765031428986
ssS'MULLER MARK S'
p195
(dp196
g3
I136
sg4
I842924
sS'fraction_exercised_stock_options'
p197
F0.7455422176549636
sg7
g5
sg8
I00
sg9
I-719000
sg10
S's..muller@enron.com'
p198
sg12
I1725545
sS'fraction_expenses'
p199
F0.0
sg14
F0.0
sg15
g5
sg16
I114
sg17
g5
sg18
I16
sg19
I947
sS'fraction_restricted_stock'
p200
F0.2544577823450363
sg21
g5
sS'fraction_loan_advances'
p201
F0.0
sg23
I1100000
sg24
I1416848
sg25
I12
sS'fraction_bonus'
p202
F0.3435277804670104
sg27
I0
sS'fraction_other'
p203
F0.0002957461891838717
sg29
I360528
sg30
I251654
sg31
I3202070
sg32
I1056320
sS'fraction_salary'
p204
F0.07859103642331366
ssS'JACKSON CHARLENE R'
p205
(dp206
g3
I258
sg4
g5
sS'fraction_exercised_stock_options'
p207
F0.25500079230021977
sg7
I10181
sg8
I00
sg9
g5
sg10
S'charlene.jackson@enron.com'
p208
sg12
g5
sS'fraction_expenses'
p209
F0.01847148087536785
sg14
F0.3392857142857143
sg15
g5
sg16
I117
sg17
g5
sg18
I56
sg19
I2435
sS'fraction_restricted_stock'
p210
F0.7449992076997802
sg21
g5
sS'fraction_loan_advances'
p211
F0.0
sg23
I250000
sg24
I725735
sg25
I25
sS'fraction_bonus'
p212
F0.453577273238578
sg27
I19
sS'fraction_other'
p213
F0.00441784264134375
sg29
I540672
sg30
I288558
sg31
I551174
sg32
I185063
sS'fraction_salary'
p214
F0.5235334032447104
ssS'WESTFAHL RICHARD K'
p215
(dp216
g3
g5
sg4
g5
sS'fraction_exercised_stock_options'
p217
F0.0
sg7
I51870
sg8
I00
sg9
I-10800
sg10
S'dick.westfahl@enron.com'
p218
sg12
I256191
sS'fraction_expenses'
p219
F0.06805880847881281
sg14
g38
sg15
g5
sg39
g38
sg16
g5
sg17
g5
sg18
g5
sg19
I401130
sS'fraction_restricted_stock'
p220
F1.0
sg21
g5
sS'fraction_loan_advances'
p221
F0.0
sg23
g5
sg24
I384930
sg25
g5
sS'fraction_bonus'
p222
F0.0
sg27
g5
sS'fraction_other'
p223
F0.5263240764431498
sg29
I384930
sg30
I63744
sg31
I762135
sg44
g38
sg32
g5
sS'fraction_salary'
p224
F0.08363872542266133
ssS'WALTERS GARETH W'
p225
(dp226
g3
g5
sg4
I53625
sS'fraction_exercised_stock_options'
p227
F1.0
sg7
I33785
sg8
I00
sg9
g5
sg10
g5
sg12
g5
sS'fraction_expenses'
p228
F0.3865118407504862
sg14
g38
sg15
g5
sg39
g38
sg16
g5
sg17
g5
sg18
g5
sg19
g5
sS'fraction_restricted_stock'
p229
F0.0
sg21
g5
sS'fraction_loan_advances'
p230
F0.0
sg23
g5
sg24
I1030329
sg25
g5
sS'fraction_bonus'
p231
F0.0
sg27
g5
sS'fraction_other'
p232
F0.0
sg29
g5
sg30
g5
sg31
I87410
sg44
g38
sg32
I1030329
sS'fraction_salary'
p233
F0.0
ssS'WALLS JR ROBERT H'
p234
(dp235
g3
I671
sg4
g5
sS'fraction_exercised_stock_options'
p236
F0.7368276335790643
sg7
I50936
sg8
I00
sg9
g5
sg10
S'rob.walls@enron.com'
p237
sg12
I540751
sS'fraction_expenses'
p238
F0.028316970391042817
sg14
F0.0
sg15
g5
sg16
I215
sg17
g5
sg18
I146
sg19
I2
sS'fraction_restricted_stock'
p239
F0.2631723664209356
sg21
g5
sS'fraction_loan_advances'
p240
F0.0
sg23
I850000
sg24
I5898997
sg25
I17
sS'fraction_bonus'
p241
F0.47254250102847484
sg27
I0
sS'fraction_other'
p242
F1.1118647083022938e-06
sg29
I1552453
sg30
I357091
sg31
I1798780
sg32
I4346544
sS'fraction_salary'
p243
F0.1985184402761872
ssS'KITCHEN LOUISE'
p244
(dp245
g3
I8305
sg4
g5
sS'fraction_exercised_stock_options'
p246
F0.14811849918577044
sg7
I5774
sg8
I00
sg9
g5
sg10
S'louise.kitchen@enron.com'
p247
sg12
g5
sS'fraction_expenses'
p248
F0.0016634299787879547
sg14
F0.11226851851851852
sg15
g5
sg16
I3669
sg17
g5
sg18
I1728
sg19
I93925
sS'fraction_restricted_stock'
p249
F0.8518815008142295
sg21
g5
sS'fraction_loan_advances'
p250
F0.0
sg23
I3100000
sg24
I547143
sg25
I251
sS'fraction_bonus'
p251
F0.8930780973748977
sg27
I194
sS'fraction_other'
p252
F0.02705882590191525
sg29
I466101
sg30
I271442
sg31
I3471141
sg32
I81042
sS'fraction_salary'
p253
F0.07819964674439903
ssS'CHAN RONNIE'
p254
(dp255
g3
g5
sg4
g5
sS'fraction_exercised_stock_options'
p256
F0.0
sg7
g5
sg8
I00
sg9
I-98784
sg10
g5
sg12
g5
sS'fraction_expenses'
p257
F0.0
sg14
g38
sg15
I-32460
sg39
g38
sg16
g5
sg17
g5
sg18
g5
sg19
g5
sS'fraction_restricted_stock'
p258
F0.0
sg21
I98784
sS'fraction_loan_advances'
p259
F0.0
sg23
g5
sg24
g5
sg25
g5
sS'fraction_bonus'
p260
F0.0
sg27
g5
sS'fraction_other'
p261
F0.0
sg29
I32460
sg30
g5
sg31
g5
sg44
g38
sg32
g5
sS'fraction_salary'
p262
F0.0
ssS'BELFER ROBERT'
p263
(dp264
g3
g5
sg4
I-102500
sS'fraction_exercised_stock_options'
p265
F-0.07450162157258522
sg7
g5
sg8
I00
sg9
g5
sg10
g5
sg12
g5
sS'fraction_expenses'
p266
F0.0
sg14
g38
sg15
I44093
sg39
g38
sg16
g5
sg17
g5
sg18
g5
sg19
g5
sS'fraction_restricted_stock'
p267
F0.0
sg21
I3285
sS'fraction_loan_advances'
p268
F0.0
sg23
g5
sg24
I-44093
sg25
g5
sS'fraction_bonus'
p269
F0.0
sg27
g5
sS'fraction_other'
p270
F0.0
sg29
g5
sg30
g5
sg31
I102500
sg44
g38
sg32
I3285
sS'fraction_salary'
p271
F0.0
ssS'SHANKMAN JEFFREY A'
p272
(dp273
g3
I3221
sg4
g5
sS'fraction_exercised_stock_options'
p274
F0.6958849633331483
sg7
I178979
sg8
I00
sg9
g5
sg10
S'jeffrey.shankman@enron.com'
p275
sg12
I554422
sS'fraction_expenses'
p276
F0.05889981972565918
sg14
F0.030958597538232
sg15
g5
sg16
I1730
sg17
g5
sg18
I2681
sg19
I1191
sS'fraction_restricted_stock'
p277
F0.3041150366668517
sg21
g5
sS'fraction_loan_advances'
p278
F0.0
sg23
I2000000
sg24
I2072035
sg25
I94
sS'fraction_bonus'
p279
F0.6581757605714545
sg27
I83
sS'fraction_other'
p280
F0.0003919436654203012
sg29
I630137
sg30
I304110
sg31
I3038702
sg32
I1441898
sS'fraction_salary'
p281
F0.10007891527369252
ssS'WODRASKA JOHN'
p282
(dp283
g3
g5
sg4
g5
sS'fraction_exercised_stock_options'
p284
F0.0
sg7
g5
sg8
I00
sg9
g5
sg10
S'john.wodraska@enron.com'
p285
sg12
g5
sS'fraction_expenses'
p286
F0.0
sg14
g38
sg15
g5
sg39
g38
sg16
g5
sg17
g5
sg18
g5
sg19
I189583
sS'fraction_restricted_stock'
p287
F0.0
sg21
g5
sS'fraction_loan_advances'
p288
F0.0
sg23
g5
sg24
g5
sg25
g5
sS'fraction_bonus'
p289
F0.0
sg27
g5
sS'fraction_other'
p290
F1.0
sg29
g5
sg30
g5
sg31
I189583
sg44
g38
sg32
g5
sS'fraction_salary'
p291
F0.0
ssS'BERGSIEKER RICHARD P'
p292
(dp293
g3
I383
sg4
g5
sS'fraction_exercised_stock_options'
p294
F0.0
sg7
I59175
sg8
I00
sg9
I-485813
sg10
S'rick.bergsieker@enron.com'
p295
sg12
I180250
sS'fraction_expenses'
p296
F0.09562090975195928
sg14
F0.0
sg15
g5
sg16
I233
sg17
g5
sg18
I59
sg19
I427316
sS'fraction_restricted_stock'
p297
F1.0
sg21
g5
sS'fraction_loan_advances'
p298
F0.0
sg23
I250000
sg24
I659249
sg25
I4
sS'fraction_bonus'
p299
F0.4039751151329078
sg27
I0
sS'fraction_other'
p300
F0.6905001211925346
sg29
I659249
sg30
I187922
sg31
I618850
sg32
g5
sS'fraction_salary'
p301
F0.3036632463440252
ssS'URQUHART JOHN A'
p302
(dp303
g3
g5
sg4
g5
sS'fraction_exercised_stock_options'
p304
F0.0
sg7
I228656
sg8
I00
sg9
I-36666
sg10
g5
sg12
g5
sS'fraction_expenses'
p305
F1.0
sg14
g38
sg15
g5
sg39
g38
sg16
g5
sg17
g5
sg18
g5
sg19
g5
sS'fraction_restricted_stock'
p306
F0.0
sg21
I36666
sS'fraction_loan_advances'
p307
F0.0
sg23
g5
sg24
g5
sg25
g5
sS'fraction_bonus'
p308
F0.0
sg27
g5
sS'fraction_other'
p309
F0.0
sg29
g5
sg30
g5
sg31
I228656
sg44
g38
sg32
g5
sS'fraction_salary'
p310
F0.0
ssS'BIBI PHILIPPE A'
p311
(dp312
g3
I1607
sg4
g5
sS'fraction_exercised_stock_options'
p313
F0.7949459165122768
sg7
I38559
sg8
I00
sg9
g5
sg10
S'philippe.bibi@enron.com'
p314
sg12
I369721
sS'fraction_expenses'
p315
F0.018831379087543277
sg14
F0.2
sg15
g5
sg16
I1336
sg17
g5
sg18
I40
sg19
I425688
sS'fraction_restricted_stock'
p316
F0.20505408348772328
sg21
g5
sS'fraction_loan_advances'
p317
F0.0
sg23
I1000000
sg24
I1843816
sg25
I23
sS'fraction_bonus'
p318
F0.4883783056496091
sg27
I8
sS'fraction_other'
p319
F0.2078967841753708
sg29
I378082
sg30
I213625
sg31
I2047593
sg32
I1465734
sS'fraction_salary'
p320
F0.10432981554439774
ssS'RIEKER PAULA H'
p321
(dp322
g3
I1328
sg4
I214678
sS'fraction_exercised_stock_options'
p323
F0.8521804566918219
sg7
I33271
sg8
I01
sg9
I-100000
sg10
S'paula.rieker@enron.com'
p324
sg12
g5
sS'fraction_expenses'
p325
F0.03027113092530252
sg14
F0.5853658536585366
sg15
g5
sg16
I1258
sg17
g5
sg18
I82
sg19
I1950
sS'fraction_restricted_stock'
p326
F0.14781954330817812
sg21
g5
sS'fraction_loan_advances'
p327
F0.0
sg23
I700000
sg24
I1918887
sg25
I35
sS'fraction_bonus'
p328
F0.6368847238649804
sg27
I48
sS'fraction_other'
p329
F0.0017741788736238742
sg29
I283649
sg30
I249201
sg31
I1099100
sg32
I1635238
sS'fraction_salary'
p330
F0.22673187153125285
ssS'WHALEY DAVID A'
p331
(dp332
g3
g5
sg4
g5
sS'fraction_exercised_stock_options'
p333
F1.0
sg7
g5
sg8
I00
sg9
g5
sg10
g5
sg12
g5
sS'fraction_expenses'
p334
F0.0
sg14
g38
sg15
g5
sg39
g38
sg16
g5
sg17
g5
sg18
g5
sg19
g5
sS'fraction_restricted_stock'
p335
F0.0
sg21
g5
sS'fraction_loan_advances'
p336
F0.0
sg23
g5
sg24
I98718
sg25
g5
sS'fraction_bonus'
p337
F0.0
sg27
g5
sS'fraction_other'
p338
F0.0
sg29
g5
sg30
g5
sg31
g5
sg44
g38
sg32
I98718
sS'fraction_salary'
p339
F0.0
ssS'BECK SALLY W'
p340
(dp341
g3
I7315
sg4
g5
sS'fraction_exercised_stock_options'
p342
F0.0
sg7
I37172
sg8
I00
sg9
g5
sg10
S'sally.beck@enron.com'
p343
sg12
g5
sS'fraction_expenses'
p344
F0.0383585052854908
sg14
F0.08887865530739121
sg15
g5
sg16
I2639
sg17
g5
sg18
I4343
sg19
I566
sS'fraction_restricted_stock'
p345
F1.0
sg21
g5
sS'fraction_loan_advances'
p346
F0.0
sg23
I700000
sg24
I126027
sg25
I144
sS'fraction_bonus'
p347
F0.7223435300721931
sg27
I386
sS'fraction_other'
p348
F0.0005840663400298018
sg29
I126027
sg30
I231330
sg31
I969068
sg32
g5
sS'fraction_salary'
p349
F0.23871389830228631
ssS'HAUG DAVID L'
p350
(dp351
g3
I573
sg4
g5
sS'fraction_exercised_stock_options'
p352
F0.0
sg7
I475
sg8
I00
sg9
g5
sg10
S'david.haug@enron.com'
p353
sg12
g5
sS'fraction_expenses'
p354
F1.0
sg14
F0.3684210526315789
sg15
g5
sg16
I471
sg17
g5
sg18
I19
sg19
g5
sS'fraction_restricted_stock'
p355
F1.0
sg21
g5
sS'fraction_loan_advances'
p356
F0.0
sg23
g5
sg24
I2217299
sg25
I4
sS'fraction_bonus'
p357
F0.0
sg27
I7
sS'fraction_other'
p358
F0.0
sg29
I2217299
sg30
g5
sg31
I475
sg32
g5
sS'fraction_salary'
p359
F0.0
ssS'ECHOLS JOHN B'
p360
(dp361
g3
g5
sg4
g5
sS'fraction_exercised_stock_options'
p362
F0.5961081966140735
sg7
I21530
sg8
I00
sg9
g5
sg10
S'john.echols@enron.com'
p363
sg12
I2234774
sS'fraction_expenses'
p364
F0.007996808705044415
sg14
g38
sg15
g5
sg39
g38
sg16
g5
sg17
g5
sg18
g5
sg19
I53775
sS'fraction_restricted_stock'
p365
F0.40389180338592645
sg21
g5
sS'fraction_loan_advances'
p366
F0.0
sg23
I200000
sg24
I1008941
sg25
g5
sS'fraction_bonus'
p367
F0.07428526432925606
sg27
g5
sS'fraction_other'
p368
F0.019973450446528724
sg29
I407503
sg30
I182245
sg31
I2692324
sg44
g38
sg32
I601438
sS'fraction_salary'
p369
F0.06769058998842635
ssS'MENDELSOHN JOHN'
p370
(dp371
g3
g5
sg4
g5
sS'fraction_exercised_stock_options'
p372
F0.0
sg7
I148
sg8
I00
sg9
I-103750
sg10
g5
sg12
g5
sS'fraction_expenses'
p373
F1.0
sg14
g38
sg15
g5
sg39
g38
sg16
g5
sg17
g5
sg18
g5
sg19
g5
sS'fraction_restricted_stock'
p374
F0.0
sg21
I103750
sS'fraction_loan_advances'
p375
F0.0
sg23
g5
sg24
g5
sg25
g5
sS'fraction_bonus'
p376
F0.0
sg27
g5
sS'fraction_other'
p377
F0.0
sg29
g5
sg30
g5
sg31
I148
sg44
g38
sg32
g5
sS'fraction_salary'
p378
F0.0
ssS'HICKERSON GARY J'
p379
(dp380
g3
I1320
sg4
g5
sS'fraction_exercised_stock_options'
p381
F0.0
sg7
I98849
sg8
I00
sg9
g5
sg10
S'gary.hickerson@enron.com'
p382
sg12
I69223
sS'fraction_expenses'
p383
F0.04748255832944246
sg14
F0.037037037037037035
sg15
g5
sg16
I900
sg17
g5
sg18
I27
sg19
I1936
sS'fraction_restricted_stock'
p384
F1.0
sg21
g5
sS'fraction_loan_advances'
p385
F0.0
sg23
I1700000
sg24
I441096
sg25
I40
sS'fraction_bonus'
p386
F0.8166025873812804
sg27
I1
sS'fraction_other'
p387
F0.0009299662406883287
sg29
I441096
sg30
I211788
sg31
I2081796
sg32
g5
sS'fraction_salary'
p388
F0.10173331104488624
ssS'CLINE KENNETH W'
p389
(dp390
g3
g5
sg4
g5
sS'fraction_exercised_stock_options'
p391
F0.0
sg7
g5
sg8
I00
sg9
g5
sg10
g5
sg12
g5
sS'fraction_expenses'
p392
F0.0
sg14
g38
sg15
I-472568
sg39
g38
sg16
g5
sg17
g5
sg18
g5
sg19
g5
sS'fraction_restricted_stock'
p393
F3.4935256809379585
sg21
g5
sS'fraction_loan_advances'
p394
F0.0
sg23
g5
sg24
I189518
sg25
g5
sS'fraction_bonus'
p395
F0.0
sg27
g5
sS'fraction_other'
p396
F0.0
sg29
I662086
sg30
g5
sg31
g5
sg44
g38
sg32
g5
sS'fraction_salary'
p397
F0.0
ssS'LEWIS RICHARD'
p398
(dp399
g3
I952
sg4
g5
sS'fraction_exercised_stock_options'
p400
F1.0
sg7
g5
sg8
I00
sg9
g5
sg10
S'richard.lewis@enron.com'
p401
sg12
g5
sS'fraction_expenses'
p402
F0.0
sg14
F0.0
sg15
g5
sg16
I739
sg17
g5
sg18
I26
sg19
g5
sS'fraction_restricted_stock'
p403
F0.0
sg21
g5
sS'fraction_loan_advances'
p404
F0.0
sg23
g5
sg24
I850477
sg25
I10
sS'fraction_bonus'
p405
F0.0
sg27
I0
sS'fraction_other'
p406
F0.0
sg29
g5
sg30
g5
sg31
g5
sg32
I850477
sS'fraction_salary'
p407
F0.0
ssS'HAYES ROBERT E'
p408
(dp409
g3
I504
sg4
I7961
sS'fraction_exercised_stock_options'
p410
F0.0
sg7
g5
sg8
I00
sg9
g5
sg10
S'robert.hayes@enron.com'
p411
sg12
g5
sS'fraction_expenses'
p412
F0.0
sg14
F0.0
sg15
g5
sg16
I50
sg17
g5
sg18
I12
sg19
g5
sS'fraction_restricted_stock'
p413
F1.0
sg21
g5
sS'fraction_loan_advances'
p414
F0.0
sg23
g5
sg24
I151418
sg25
I16
sS'fraction_bonus'
p415
F0.0
sg27
I0
sS'fraction_other'
p416
F0.0
sg29
I151418
sg30
g5
sg31
I7961
sg32
g5
sS'fraction_salary'
p417
F0.0
ssS'MCCARTY DANNY J'
p418
(dp419
g3
I1433
sg4
g5
sS'fraction_exercised_stock_options'
p420
F0.8754089633971995
sg7
g5
sg8
I00
sg9
g5
sg10
S'danny.mccarty@enron.com'
p421
sg12
g5
sS'fraction_expenses'
p422
F0.0
sg14
F0.009302325581395349
sg15
g5
sg16
I508
sg17
g5
sg18
I215
sg19
g5
sS'fraction_restricted_stock'
p423
F0.12459103660280052
sg21
g5
sS'fraction_loan_advances'
p424
F0.0
sg23
g5
sg24
I758931
sg25
I25
sS'fraction_bonus'
p425
F0.0
sg27
I2
sS'fraction_other'
p426
F0.0
sg29
I94556
sg30
g5
sg31
g5
sg32
I664375
sS'fraction_salary'
p427
F0.0
ssS'KOPPER MICHAEL J'
p428
(dp429
g3
g5
sg4
g5
sS'fraction_exercised_stock_options'
p430
F0.0
sg7
I118134
sg8
I01
sg9
g5
sg10
S'michael.kopper@enron.com'
p431
sg12
I602671
sS'fraction_expenses'
p432
F0.04453497156764728
sg14
g38
sg15
g5
sg39
g38
sg16
g5
sg17
g5
sg18
g5
sg19
I907502
sS'fraction_restricted_stock'
p433
F1.0
sg21
g5
sS'fraction_loan_advances'
p434
F0.0
sg23
I800000
sg24
I985032
sg25
g5
sS'fraction_bonus'
p435
F0.30158952760524343
sg27
g5
sS'fraction_other'
p436
F0.34211637435101705
sg29
I985032
sg30
I224305
sg31
I2652612
sg44
g38
sg32
g5
sS'fraction_salary'
p437
F0.08456004873686766
ssS'LEFF DANIEL P'
p438
(dp439
g3
I2822
sg4
g5
sS'fraction_exercised_stock_options'
p440
F0.0
sg7
g5
sg8
I00
sg9
g5
sg10
S'dan.leff@enron.com'
p441
sg12
I1387399
sS'fraction_expenses'
p442
F0.0
sg14
F0.2222222222222222
sg15
g5
sg16
I2672
sg17
g5
sg18
I63
sg19
I3083
sS'fraction_restricted_stock'
p443
F1.0
sg21
g5
sS'fraction_loan_advances'
p444
F0.0
sg23
I1000000
sg24
I360528
sg25
I67
sS'fraction_bonus'
p445
F0.3753432514034084
sg27
I14
sS'fraction_other'
p446
F0.001157183244076708
sg29
I360528
sg30
I273746
sg31
I2664228
sg32
g5
sS'fraction_salary'
p447
F0.10274871369867744
ssS'LAVORATO JOHN J'
p448
(dp449
g3
I7259
sg4
g5
sS'fraction_exercised_stock_options'
p450
F0.80489241252034
sg7
I49537
sg8
I00
sg9
g5
sg10
S'john.lavorato@enron.com'
p451
sg12
I2035380
sS'fraction_expenses'
p452
F0.004751405581388478
sg14
F0.15899419729206962
sg15
g5
sg16
I3962
sg17
g5
sg18
I2585
sg19
I1552
sS'fraction_restricted_stock'
p453
F0.19510758747965995
sg21
g5
sS'fraction_loan_advances'
p454
F0.0
sg23
I8000000
sg24
I5167144
sg25
I528
sS'fraction_bonus'
p455
F0.767330372269371
sg27
I411
sS'fraction_other'
p456
F0.00014886209222025797
sg29
I1008149
sg30
I339288
sg31
I10425757
sg32
I4158995
sS'fraction_salary'
p457
F0.03254324841831629
ssS'BERBERIAN DAVID'
p458
(dp459
g3
g5
sg4
g5
sS'fraction_exercised_stock_options'
p460
F0.6514218708895034
sg7
I11892
sg8
I00
sg9
g5
sg10
S'david.berberian@enron.com'
p461
sg12
g5
sS'fraction_expenses'
p462
F0.052049686178733685
sg14
g38
sg15
g5
sg39
g38
sg16
g5
sg17
g5
sg18
g5
sg19
g5
sS'fraction_restricted_stock'
p463
F0.34857812911049657
sg21
g5
sS'fraction_loan_advances'
p464
F0.0
sg23
g5
sg24
I2493616
sg25
g5
sS'fraction_bonus'
p465
F0.0
sg27
g5
sS'fraction_other'
p466
F0.0
sg29
I869220
sg30
I216582
sg31
I228474
sg44
g38
sg32
I1624396
sS'fraction_salary'
p467
F0.9479503138212663
ssS'DETMERING TIMOTHY J'
p468
(dp469
g3
g5
sg4
I875307
sS'fraction_exercised_stock_options'
p470
F1.0
sg7
I52255
sg8
I00
sg9
I-775241
sg10
S'timothy.detmering@enron.com'
p471
sg12
I415657
sS'fraction_expenses'
p472
F0.0433801572826447
sg14
g38
sg15
I-315068
sg39
g38
sg16
g5
sg17
g5
sg18
g5
sg19
I1105
sS'fraction_restricted_stock'
p473
F0.15536931699102258
sg21
g5
sS'fraction_loan_advances'
p474
F0.0
sg23
I425000
sg24
I2027865
sg25
g5
sS'fraction_bonus'
p475
F0.3528191913716199
sg27
g5
sS'fraction_other'
p476
F0.0009173298975662117
sg29
I315068
sg30
I210500
sg31
I1204583
sg44
g38
sg32
I2027865
sS'fraction_salary'
p477
F0.17474927007935526
ssS'WAKEHAM JOHN'
p478
(dp479
g3
g5
sg4
g5
sS'fraction_exercised_stock_options'
p480
F0.0
sg7
I103773
sg8
I00
sg9
g5
sg10
g5
sg12
g5
sS'fraction_expenses'
p481
F0.4870348381525407
sg14
g38
sg15
g5
sg39
g38
sg16
g5
sg17
g5
sg18
g5
sg19
g5
sS'fraction_restricted_stock'
p482
F0.0
sg21
I109298
sS'fraction_loan_advances'
p483
F0.0
sg23
g5
sg24
g5
sg25
g5
sS'fraction_bonus'
p484
F0.0
sg27
g5
sS'fraction_other'
p485
F0.0
sg29
g5
sg30
g5
sg31
I213071
sg44
g38
sg32
g5
sS'fraction_salary'
p486
F0.0
ssS'POWERS WILLIAM'
p487
(dp488
g3
I653
sg4
g5
sS'fraction_exercised_stock_options'
p489
F0.0
sg7
g5
sg8
I00
sg9
I-17500
sg10
S'ken.powers@enron.com'
p490
sg12
g5
sS'fraction_expenses'
p491
F0.0
sg14
F0.0
sg15
g5
sg16
I12
sg17
g5
sg18
I26
sg19
g5
sS'fraction_restricted_stock'
p492
F0.0
sg21
I17500
sS'fraction_loan_advances'
p493
F0.0
sg23
g5
sg24
g5
sg25
I0
sS'fraction_bonus'
p494
F0.0
sg27
I0
sS'fraction_other'
p495
F0.0
sg29
g5
sg30
g5
sg31
g5
sg32
g5
sS'fraction_salary'
p496
F0.0
ssS'GOLD JOSEPH'
p497
(dp498
g3
g5
sg4
g5
sS'fraction_exercised_stock_options'
p499
F0.4973900737342627
sg7
g5
sg8
I00
sg9
g5
sg10
S'joe.gold@enron.com'
p500
sg12
I304805
sS'fraction_expenses'
p501
F0.0
sg14
g38
sg15
g5
sg39
g38
sg16
g5
sg17
g5
sg18
g5
sg19
I819288
sS'fraction_restricted_stock'
p502
F0.5026099262657373
sg21
g5
sS'fraction_loan_advances'
p503
F0.0
sg23
I750000
sg24
I877611
sg25
g5
sS'fraction_bonus'
p504
F0.34932903208377564
sg27
g5
sS'fraction_other'
p505
F0.38160144538380314
sg29
I441096
sg30
I272880
sg31
I2146973
sg44
g38
sg32
I436515
sS'fraction_salary'
p506
F0.12709987503336093
ssS'BANNANTINE JAMES M'
p507
(dp508
g3
I566
sg4
g5
sS'fraction_exercised_stock_options'
p509
F0.7716538631639595
sg7
I56301
sg8
I00
sg9
I-5104
sg10
S'james.bannantine@enron.com'
p510
sg12
g5
sS'fraction_expenses'
p511
F0.0614507578610277
sg14
F0.0
sg15
I-560222
sg16
I465
sg17
g5
sg18
I29
sg19
I864523
sS'fraction_restricted_stock'
p512
F0.33518763372541976
sg21
g5
sS'fraction_loan_advances'
p513
F0.0
sg23
g5
sg24
I5243487
sg25
I39
sS'fraction_bonus'
p514
F0.0
sg27
I0
sS'fraction_other'
p515
F0.943599466053698
sg29
I1757552
sg30
I477
sg31
I916197
sg32
I4046157
sS'fraction_salary'
p516
F0.0005206303884426602
ssS'DUNCAN JOHN H'
p517
(dp518
g3
g5
sg4
g5
sS'fraction_exercised_stock_options'
p519
F1.0
sg7
g5
sg8
I00
sg9
I-25000
sg10
g5
sg12
g5
sS'fraction_expenses'
p520
F0.0
sg14
g38
sg15
g5
sg39
g38
sg16
g5
sg17
g5
sg18
g5
sg19
g5
sS'fraction_restricted_stock'
p521
F0.0
sg21
I102492
sS'fraction_loan_advances'
p522
F0.0
sg23
g5
sg24
I371750
sg25
g5
sS'fraction_bonus'
p523
F0.0
sg27
g5
sS'fraction_other'
p524
F0.0
sg29
g5
sg30
g5
sg31
I77492
sg44
g38
sg32
I371750
sS'fraction_salary'
p525
F0.0
ssS'SHAPIRO RICHARD S'
p526
(dp527
g3
I15149
sg4
g5
sS'fraction_exercised_stock_options'
p528
F0.6158423345062467
sg7
I137767
sg8
I00
sg9
g5
sg10
S'richard.shapiro@enron.com'
p529
sg12
g5
sS'fraction_expenses'
p530
F0.1302702099573731
sg14
F0.053497942386831275
sg15
g5
sg16
I4527
sg17
g5
sg18
I1215
sg19
I705
sS'fraction_restricted_stock'
p531
F0.3841576654937533
sg21
g5
sS'fraction_loan_advances'
p532
F0.0
sg23
I650000
sg24
I987001
sg25
I74
sS'fraction_bonus'
p533
F0.6146293123338137
sg27
I65
sS'fraction_other'
p534
F0.0006666364079928287
sg29
I379164
sg30
I269076
sg31
I1057548
sg32
I607837
sS'fraction_salary'
p535
F0.25443384130082036
ssS'SHERRIFF JOHN R'
p536
(dp537
g3
I3187
sg4
g5
sS'fraction_exercised_stock_options'
p538
F0.5866310512492562
sg7
g5
sg8
I00
sg9
g5
sg10
S'john.sherriff@enron.com'
p539
sg12
I554422
sS'fraction_expenses'
p540
F0.0
sg14
F0.25
sg15
g5
sg16
I2103
sg17
g5
sg18
I92
sg19
I1852186
sS'fraction_restricted_stock'
p541
F0.41336894875074387
sg21
g5
sS'fraction_loan_advances'
p542
F0.0
sg23
I1500000
sg24
I3128982
sg25
I28
sS'fraction_bonus'
p543
F0.34598979376240374
sg27
I23
sS'fraction_other'
p544
F0.42722496809974103
sg29
I1293424
sg30
I428780
sg31
I4335388
sg32
I1835558
sS'fraction_salary'
p545
F0.09890233584629565
ssS'SHELBY REX'
p546
(dp547
g3
I225
sg4
g5
sS'fraction_exercised_stock_options'
p548
F0.6514218708895034
sg7
I22884
sg8
I01
sg9
I-4167
sg10
S'rex.shelby@enron.com'
p549
sg12
g5
sS'fraction_expenses'
p550
F0.011419817005466881
sg14
F0.358974358974359
sg15
g5
sg16
I91
sg17
g5
sg18
I39
sg19
I1573324
sS'fraction_restricted_stock'
p551
F0.34857812911049657
sg21
g5
sS'fraction_loan_advances'
p552
F0.0
sg23
I200000
sg24
I2493616
sg25
I13
sS'fraction_bonus'
p553
F0.09980612659908128
sg27
I14
sS'fraction_other'
p554
F0.7851368716268649
sg29
I869220
sg30
I211844
sg31
I2003885
sg32
I1624396
sS'fraction_salary'
p555
F0.10571664541627888
ssS'LEMAISTRE CHARLES'
p556
(dp557
g3
g5
sg4
g5
sS'fraction_exercised_stock_options'
p558
F1.0
sg7
g5
sg8
I00
sg9
I-25000
sg10
g5
sg12
g5
sS'fraction_expenses'
p559
F0.0
sg14
g38
sg15
g5
sg39
g38
sg16
g5
sg17
g5
sg18
g5
sg19
g5
sS'fraction_restricted_stock'
p560
F0.0
sg21
I112492
sS'fraction_loan_advances'
p561
F0.0
sg23
g5
sg24
I412878
sg25
g5
sS'fraction_bonus'
p562
F0.0
sg27
g5
sS'fraction_other'
p563
F0.0
sg29
g5
sg30
g5
sg31
I87492
sg44
g38
sg32
I412878
sS'fraction_salary'
p564
F0.0
ssS'DEFFNER JOSEPH M'
p565
(dp566
g3
I714
sg4
g5
sS'fraction_exercised_stock_options'
p567
F0.10915074963413332
sg7
I41626
sg8
I00
sg9
g5
sg10
S'joseph.deffner@enron.com'
p568
sg12
I335349
sS'fraction_expenses'
p569
F0.034440106267410966
sg14
F0.05405405405405406
sg15
g5
sg16
I552
sg17
g5
sg18
I74
sg19
I25553
sS'fraction_restricted_stock'
p570
F0.8908492503658667
sg21
g5
sS'fraction_loan_advances'
p571
F0.0
sg23
I600000
sg24
I159211
sg25
I115
sS'fraction_bonus'
p572
F0.49642203815996205
sg27
I4
sS'fraction_other'
p573
F0.021141787235169185
sg29
I141833
sg30
I206121
sg31
I1208649
sg32
I17378
sS'fraction_salary'
p574
F0.17053834487928257
ssS'KISHKILL JOSEPH G'
p575
(dp576
g3
g5
sg4
g5
sS'fraction_exercised_stock_options'
p577
F0.0
sg7
I116335
sg8
I00
sg9
I-51042
sg10
S'joe.kishkill@enron.com'
p578
sg12
g5
sS'fraction_expenses'
p579
F0.16503853050662792
sg14
g38
sg15
g5
sg39
g38
sg16
g5
sg17
g5
sg18
g5
sg19
I465357
sS'fraction_restricted_stock'
p580
F1.0
sg21
g5
sS'fraction_loan_advances'
p581
F0.0
sg23
g5
sg24
I1034346
sg25
g5
sS'fraction_bonus'
p582
F0.0
sg27
g5
sS'fraction_other'
p583
F0.660178239059379
sg29
I1034346
sg30
I174246
sg31
I704896
sg44
g38
sg32
g5
sS'fraction_salary'
p584
F0.2471939122934447
ssS'WHALLEY LAWRENCE G'
p585
(dp586
g3
I6019
sg4
g5
sS'fraction_exercised_stock_options'
p587
F0.5400371796194098
sg7
I57838
sg8
I00
sg9
g5
sg10
S'greg.whalley@enron.com'
p588
sg12
I808346
sS'fraction_expenses'
p589
F0.012364956706190004
sg14
F0.04316546762589928
sg15
g5
sg16
I3920
sg17
g5
sg18
I556
sg19
I301026
sS'fraction_restricted_stock'
p590
F0.4599628203805902
sg21
g5
sS'fraction_loan_advances'
p591
F0.0
sg23
I3000000
sg24
I6079137
sg25
I186
sS'fraction_bonus'
p592
F0.6413581057189047
sg27
I24
sS'fraction_other'
p593
F0.06435515504404633
sg29
I2796177
sg30
I510364
sg31
I4677574
sg32
I3282960
sS'fraction_salary'
p594
F0.10910869608904103
ssS'MCCONNELL MICHAEL S'
p595
(dp596
g3
I3329
sg4
g5
sS'fraction_exercised_stock_options'
p597
F0.5233356947246603
sg7
I81364
sg8
I00
sg9
g5
sg10
S'mike.mcconnell@enron.com'
p598
sg12
I554422
sS'fraction_expenses'
p599
F0.038719612594486245
sg14
F0.07075127644055434
sg15
g5
sg16
I2189
sg17
g5
sg18
I2742
sg19
I540
sS'fraction_restricted_stock'
p600
F0.47666430527533965
sg21
g5
sS'fraction_loan_advances'
p601
F0.0
sg23
I1100000
sg24
I3101279
sg25
I92
sS'fraction_bonus'
p602
F0.5234695178940917
sg27
I194
sS'fraction_other'
p603
F0.00025697594514800863
sg29
I1478269
sg30
I365038
sg31
I2101364
sg32
I1623010
sS'fraction_salary'
p604
F0.17371478715729402
ssS'PIRO JIM'
p605
(dp606
g3
I58
sg4
g5
sS'fraction_exercised_stock_options'
p607
F0.0
sg7
g5
sg8
I00
sg9
g5
sg10
S'jim.piro@enron.com'
p608
sg12
g5
sS'fraction_expenses'
p609
F0.0
sg14
F0.0625
sg15
g5
sg16
I3
sg17
g5
sg18
I16
sg19
g5
sS'fraction_restricted_stock'
p610
F1.0
sg21
g5
sS'fraction_loan_advances'
p611
F0.0
sg23
g5
sg24
I47304
sg25
I0
sS'fraction_bonus'
p612
F0.0
sg27
I1
sS'fraction_other'
p613
F0.0
sg29
I47304
sg30
g5
sg31
g5
sg32
g5
sS'fraction_salary'
p614
F0.0
ssS'DELAINEY DAVID W'
p615
(dp616
g3
I3093
sg4
g5
sS'fraction_exercised_stock_options'
p617
F0.6339091172441614
sg7
I86174
sg8
I01
sg9
g5
sg10
S'david.delainey@enron.com'
p618
sg12
I1294981
sS'fraction_expenses'
p619
F0.018149616921220586
sg14
F0.198435972629521
sg15
g5
sg16
I2097
sg17
g5
sg18
I3069
sg19
I1661
sS'fraction_restricted_stock'
p620
F0.3660908827558386
sg21
g5
sS'fraction_loan_advances'
p621
F0.0
sg23
I3000000
sg24
I3614261
sg25
I66
sS'fraction_bonus'
p622
F0.6318477819720769
sg27
I609
sS'fraction_other'
p623
F0.0003498330552852066
sg29
I1323148
sg30
I365163
sg31
I4747979
sg32
I2291113
sS'fraction_salary'
p624
F0.07690914386942319
ssS'SULLIVAN-SHAKLOVITZ COLLEEN'
p625
(dp626
g3
g5
sg4
I181993
sS'fraction_exercised_stock_options'
p627
F1.0
sg7
g5
sg8
I00
sg9
g5
sg10
g5
sg12
I554422
sS'fraction_expenses'
p628
F0.0
sg14
g38
sg15
g5
sg39
g38
sg16
g5
sg17
g5
sg18
g5
sg19
I162
sS'fraction_restricted_stock'
p629
F0.0
sg21
g5
sS'fraction_loan_advances'
p630
F0.0
sg23
I100000
sg24
I1362375
sg25
g5
sS'fraction_bonus'
p631
F0.10006444150032621
sg27
g5
sS'fraction_other'
p632
F0.00016210439523052847
sg29
g5
sg30
I162779
sg31
I999356
sg44
g38
sg32
I1362375
sS'fraction_salary'
p633
F0.162883897229816
ssS'WROBEL BRUCE'
p634
(dp635
g3
g5
sg4
g5
sS'fraction_exercised_stock_options'
p636
F1.0
sg7
g5
sg8
I00
sg9
g5
sg10
g5
sg12
g5
sS'fraction_expenses'
p637
F0.0
sg14
g38
sg15
g5
sg39
g38
sg16
g5
sg17
g5
sg18
g5
sg19
g5
sS'fraction_restricted_stock'
p638
F0.0
sg21
g5
sS'fraction_loan_advances'
p639
F0.0
sg23
g5
sg24
I139130
sg25
g5
sS'fraction_bonus'
p640
F0.0
sg27
g5
sS'fraction_other'
p641
F0.0
sg29
g5
sg30
g5
sg31
g5
sg44
g38
sg32
I139130
sS'fraction_salary'
p642
F0.0
ssS'LINDHOLM TOD A'
p643
(dp644
g3
g5
sg4
I204075
sS'fraction_exercised_stock_options'
p645
F0.8319804008083003
sg7
I57727
sg8
I00
sg9
g5
sg10
S'tod.lindholm@enron.com'
p646
sg12
I175000
sS'fraction_expenses'
p647
F0.06590675302464125
sg14
g38
sg15
g5
sg39
g38
sg16
g5
sg17
g5
sg18
g5
sg19
I2630
sS'fraction_restricted_stock'
p648
F0.1680195991916998
sg21
g5
sS'fraction_loan_advances'
p649
F0.0
sg23
I200000
sg24
I3064208
sg25
g5
sS'fraction_bonus'
p650
F0.22833943570475254
sg27
g5
sS'fraction_other'
p651
F0.003002663579517496
sg29
I514847
sg30
I236457
sg31
I875889
sg44
g38
sg32
I2549361
sS'fraction_salary'
p652
F0.2699622897421934
ssS'MEYER JEROME J'
p653
(dp654
g3
g5
sg4
g5
sS'fraction_exercised_stock_options'
p655
F0.0
sg7
I2151
sg8
I00
sg9
I-38346
sg10
g5
sg12
g5
sS'fraction_expenses'
p656
F1.0
sg14
g38
sg15
g5
sg39
g38
sg16
g5
sg17
g5
sg18
g5
sg19
g5
sS'fraction_restricted_stock'
p657
F0.0
sg21
I38346
sS'fraction_loan_advances'
p658
F0.0
sg23
g5
sg24
g5
sg25
g5
sS'fraction_bonus'
p659
F0.0
sg27
g5
sS'fraction_other'
p660
F0.0
sg29
g5
sg30
g5
sg31
I2151
sg44
g38
sg32
g5
sS'fraction_salary'
p661
F0.0
ssS'LAY KENNETH L'
p662
(dp663
g3
I4273
sg4
I202911
sS'fraction_exercised_stock_options'
p664
F0.6994161972212709
sg7
I99832
sg8
I01
sg9
I-300000
sg10
S'kenneth.lay@enron.com'
p665
sg12
I3600000
sS'fraction_expenses'
p666
F0.0009640034718879749
sg14
F0.4444444444444444
sg15
g5
sg16
I2411
sg17
I81525000
sg18
I36
sg19
I10359729
sS'fraction_restricted_stock'
p667
F0.30058380277872904
sg21
g5
sS'fraction_loan_advances'
p668
F0.7872263707595476
sg23
I7000000
sg24
I49110078
sg25
I123
sS'fraction_bonus'
p669
F0.06759380061719514
sg27
I16
sS'fraction_other'
p670
F0.10003620806773919
sg29
I14761694
sg30
I1072321
sg31
I103559793
sg32
I34348384
sS'fraction_salary'
p671
F0.010354607410233042
ssS'BUTTS ROBERT H'
p672
(dp673
g3
g5
sg4
g5
sS'fraction_exercised_stock_options'
p674
F0.0
sg7
I9410
sg8
I00
sg9
I-75000
sg10
S'bob.butts@enron.com'
p675
sg12
I175000
sS'fraction_expenses'
p676
F0.007400230578916657
sg14
g38
sg15
g5
sg39
g38
sg16
g5
sg17
g5
sg18
g5
sg19
I150656
sS'fraction_restricted_stock'
p677
F1.0
sg21
g5
sS'fraction_loan_advances'
p678
F0.0
sg23
I750000
sg24
I417619
sg25
g5
sS'fraction_bonus'
p679
F0.5898164648445794
sg27
g5
sS'fraction_other'
p680
F0.11847918577016661
sg29
I417619
sg30
I261516
sg31
I1271582
sg44
g38
sg32
g5
sS'fraction_salary'
p681
F0.20566192349372672
ssS'OLSON CINDY K'
p682
(dp683
g3
I1184
sg4
I77716
sS'fraction_exercised_stock_options'
p684
F0.6279949500587511
sg7
I63791
sg8
I00
sg9
g5
sg10
S'cindy.olson@enron.com'
p685
sg12
I100000
sS'fraction_expenses'
p686
F0.04826957898902582
sg14
F0.28846153846153844
sg15
g5
sg16
I856
sg17
g5
sg18
I52
sg19
I972
sS'fraction_restricted_stock'
p687
F0.372005049941249
sg21
g5
sS'fraction_loan_advances'
p688
F0.0
sg23
I750000
sg24
I2606763
sg25
I20
sS'fraction_bonus'
p689
F0.5675124114964394
sg27
I15
sS'fraction_other'
p690
F0.0007354960852993855
sg29
I969729
sg30
I329078
sg31
I1321557
sg32
I1637034
sS'fraction_salary'
p691
F0.2490077991339004
ssS'MCDONALD REBECCA'
p692
(dp693
g3
I894
sg4
g5
sS'fraction_exercised_stock_options'
p694
F0.4477451953036776
sg7
g5
sg8
I00
sg9
g5
sg10
S'rebecca.mcdonald@enron.com'
p695
sg12
g5
sS'fraction_expenses'
p696
F0.0
sg14
F0.07692307692307693
sg15
g5
sg16
I720
sg17
g5
sg18
I13
sg19
g5
sS'fraction_restricted_stock'
p697
F0.5522548046963224
sg21
g5
sS'fraction_loan_advances'
p698
F0.0
sg23
g5
sg24
I1691366
sg25
I54
sS'fraction_bonus'
p699
F0.0
sg27
I1
sS'fraction_other'
p700
F0.0
sg29
I934065
sg30
g5
sg31
g5
sg32
I757301
sS'fraction_salary'
p701
F0.0
ssS'CUMBERLAND MICHAEL S'
p702
(dp703
g3
g5
sg4
g5
sS'fraction_exercised_stock_options'
p704
F0.0
sg7
I22344
sg8
I00
sg9
g5
sg10
g5
sg12
I275000
sS'fraction_expenses'
p705
F0.02765497131031888
sg14
g38
sg15
g5
sg39
g38
sg16
g5
sg17
g5
sg18
g5
sg19
I713
sS'fraction_restricted_stock'
p706
F1.0
sg21
g5
sS'fraction_loan_advances'
p707
F0.0
sg23
I325000
sg24
I207940
sg25
g5
sS'fraction_bonus'
p708
F0.4022496274549604
sg27
g5
sS'fraction_other'
p709
F0.0008824737980781132
sg29
I207940
sg30
I184899
sg31
I807956
sg44
g38
sg32
g5
sS'fraction_salary'
p710
F0.2288478580516761
ssS'GAHN ROBERT S'
p711
(dp712
g3
g5
sg4
I73122
sS'fraction_exercised_stock_options'
p713
F0.2612528914932817
sg7
I50080
sg8
I00
sg9
I-1042
sg10
g5
sg12
g5
sS'fraction_expenses'
p714
F0.055608299050061906
sg14
g38
sg15
g5
sg39
g38
sg16
g5
sg17
g5
sg18
g5
sg19
I76547
sS'fraction_restricted_stock'
p715
F0.7387471085067183
sg21
g5
sS'fraction_loan_advances'
p716
F0.0
sg23
I509870
sg24
I318607
sg25
g5
sS'fraction_bonus'
p717
F0.5661542219779365
sg27
g5
sS'fraction_other'
p718
F0.08499697418899937
sg29
I235370
sg30
I192008
sg31
I900585
sg44
g38
sg32
I83237
sS'fraction_salary'
p719
F0.21320363985631563
ssS'MCCLELLAN GEORGE'
p720
(dp721
g3
I1744
sg4
g5
sS'fraction_exercised_stock_options'
p722
F0.534640627686971
sg7
I228763
sg8
I00
sg9
I-125000
sg10
S'george.mcclellan@enron.com'
p723
sg12
g5
sS'fraction_expenses'
p724
F0.17346786344475845
sg14
F0.0
sg15
g5
sg16
I1469
sg17
g5
sg18
I49
sg19
I51587
sS'fraction_restricted_stock'
p725
F0.46535937231302904
sg21
g5
sS'fraction_loan_advances'
p726
F0.0
sg23
I900000
sg24
I947861
sg25
I52
sS'fraction_bonus'
p727
F0.6824577274309334
sg27
I0
sS'fraction_other'
p728
F0.03911771864997729
sg29
I441096
sg30
I263413
sg31
I1318763
sg32
I506765
sS'fraction_salary'
p729
F0.1997424859508494
ssS'HERMANN ROBERT J'
p730
(dp731
g3
g5
sg4
g5
sS'fraction_exercised_stock_options'
p732
F0.2806331682960852
sg7
I48357
sg8
I00
sg9
I-280000
sg10
S'robert.hermann@enron.com'
p733
sg12
I150000
sS'fraction_expenses'
p734
F0.0372704844307459
sg14
g38
sg15
g5
sg39
g38
sg16
g5
sg17
g5
sg18
g5
sg19
I416441
sS'fraction_restricted_stock'
p735
F0.7193668317039148
sg21
g5
sS'fraction_loan_advances'
p736
F0.0
sg23
I700000
sg24
I668132
sg25
g5
sS'fraction_bonus'
p737
F0.5395152532523135
sg27
g5
sS'fraction_other'
p738
F0.32096610225663813
sg29
I480632
sg30
I262663
sg31
I1297461
sg44
g38
sg32
I187500
sS'fraction_salary'
p739
F0.20244384995001777
ssS'SCRIMSHAW MATTHEW'
p740
(dp741
g3
g5
sg4
g5
sS'fraction_exercised_stock_options'
p742
F1.0
sg7
g5
sg8
I00
sg9
g5
sg10
S'matthew.scrimshaw@enron.com'
p743
sg12
g5
sS'fraction_expenses'
p744
F0.0
sg14
g38
sg15
g5
sg39
g38
sg16
g5
sg17
g5
sg18
g5
sg19
g5
sS'fraction_restricted_stock'
p745
F0.0
sg21
g5
sS'fraction_loan_advances'
p746
F0.0
sg23
g5
sg24
I759557
sg25
g5
sS'fraction_bonus'
p747
F0.0
sg27
g5
sS'fraction_other'
p748
F0.0
sg29
g5
sg30
g5
sg31
g5
sg44
g38
sg32
I759557
sS'fraction_salary'
p749
F0.0
ssS'GATHMANN WILLIAM D'
p750
(dp751
g3
g5
sg4
g5
sS'fraction_exercised_stock_options'
p752
F0.9015123164864087
sg7
g5
sg8
I00
sg9
g5
sg10
g5
sg12
g5
sS'fraction_expenses'
p753
F0.0
sg14
g38
sg15
I-72419
sg39
g38
sg16
g5
sg17
g5
sg18
g5
sg19
g5
sS'fraction_restricted_stock'
p754
F0.13571421227947528
sg21
g5
sS'fraction_loan_advances'
p755
F0.0
sg23
g5
sg24
I1945360
sg25
g5
sS'fraction_bonus'
p756
F0.0
sg27
g5
sS'fraction_other'
p757
F0.0
sg29
I264013
sg30
g5
sg31
g5
sg44
g38
sg32
I1753766
sS'fraction_salary'
p758
F0.0
ssS'HAEDICKE MARK E'
p759
(dp760
g3
I4009
sg4
I2157527
sS'fraction_exercised_stock_options'
p761
F0.7580059121348186
sg7
I76169
sg8
I00
sg9
I-934484
sg10
S'mark.haedicke@enron.com'
p762
sg12
I983346
sS'fraction_expenses'
p763
F0.019737682573369456
sg14
F0.03142709943328181
sg15
I-329825
sg16
I1847
sg17
g5
sg18
I1941
sg19
I52382
sS'fraction_restricted_stock'
p764
F0.6526869830928883
sg21
g5
sS'fraction_loan_advances'
p765
F0.0
sg23
I1150000
sg24
I803094
sg25
I180
sS'fraction_bonus'
p766
F0.29799964499172726
sg27
I61
sS'fraction_other'
p767
F0.013573754264310137
sg29
I524169
sg30
I374125
sg31
I3859065
sg32
I608750
sS'fraction_salary'
p768
F0.09694705841959127
ssS'BOWEN JR RAYMOND M'
p769
(dp770
g3
I1858
sg4
g5
sS'fraction_exercised_stock_options'
p771
F0.0
sg7
I65907
sg8
I01
sg9
I-833
sg10
S'raymond.bowen@enron.com'
p772
sg12
I974293
sS'fraction_expenses'
p773
F0.024688069961331126
sg14
F0.5555555555555556
sg15
g5
sg16
I1593
sg17
g5
sg18
I27
sg19
I1621
sS'fraction_restricted_stock'
p774
F1.0
sg21
g5
sS'fraction_loan_advances'
p775
F0.0
sg23
I1350000
sg24
I252055
sg25
I140
sS'fraction_bonus'
p776
F0.5056958205926081
sg27
I15
sS'fraction_other'
p777
F0.000607209574207865
sg29
I252055
sg30
I278601
sg31
I2669589
sg32
g5
sS'fraction_salary'
p778
F0.10436100837994162
ssS'GILLIS JOHN'
p779
(dp780
g3
g5
sg4
g5
sS'fraction_exercised_stock_options'
p781
F0.11446620193598861
sg7
g5
sg8
I00
sg9
g5
sg10
g5
sg12
g5
sS'fraction_expenses'
p782
F0.0
sg14
g38
sg15
g5
sg39
g38
sg16
g5
sg17
g5
sg18
g5
sg19
g5
sS'fraction_restricted_stock'
p783
F0.8855337980640114
sg21
g5
sS'fraction_loan_advances'
p784
F0.0
sg23
g5
sg24
I85641
sg25
g5
sS'fraction_bonus'
p785
F0.0
sg27
g5
sS'fraction_other'
p786
F0.0
sg29
I75838
sg30
g5
sg31
g5
sg44
g38
sg32
I9803
sS'fraction_salary'
p787
F0.0
ssS'FITZGERALD JAY L'
p788
(dp789
g3
I936
sg4
g5
sS'fraction_exercised_stock_options'
p790
F0.40984841195236227
sg7
I23870
sg8
I00
sg9
g5
sg10
S'jay.fitzgerald@enron.com'
p791
sg12
I556416
sS'fraction_expenses'
p792
F0.01687096293123616
sg14
F0.5
sg15
g5
sg16
I723
sg17
g5
sg18
I16
sg19
I285414
sS'fraction_restricted_stock'
p793
F0.5901515880476377
sg21
g5
sS'fraction_loan_advances'
p794
F0.0
sg23
I350000
sg24
I1621236
sg25
I1
sS'fraction_bonus'
p795
F0.24737482303865338
sg27
I8
sS'fraction_other'
p796
F0.20172639355072633
sg29
I956775
sg30
I199157
sg31
I1414857
sg32
I664461
sS'fraction_salary'
p797
F0.14076122180545456
ssS'MORAN MICHAEL P'
p798
(dp799
g3
I672
sg4
g5
sS'fraction_exercised_stock_options'
p800
F0.2692354651557151
sg7
g5
sg8
I00
sg9
g5
sg10
S'michael.moran@enron.com'
p801
sg12
g5
sS'fraction_expenses'
p802
F0.0
sg14
F0.0
sg15
g5
sg16
I127
sg17
g5
sg18
I19
sg19
g5
sS'fraction_restricted_stock'
p803
F0.7307645348442848
sg21
g5
sS'fraction_loan_advances'
p804
F0.0
sg23
g5
sg24
I221141
sg25
I0
sS'fraction_bonus'
p805
F0.0
sg27
I0
sS'fraction_other'
p806
F0.0
sg29
I161602
sg30
g5
sg31
g5
sg32
I59539
sS'fraction_salary'
p807
F0.0
ssS'REDMOND BRIAN L'
p808
(dp809
g3
I1671
sg4
g5
sS'fraction_exercised_stock_options'
p810
F0.951676889314051
sg7
I14689
sg8
I00
sg9
g5
sg10
S'brian.redmond@enron.com'
p811
sg12
g5
sS'fraction_expenses'
p812
F0.1317056550314268
sg14
F0.22171945701357465
sg15
g5
sg16
I1063
sg17
g5
sg18
I221
sg19
g5
sS'fraction_restricted_stock'
p813
F0.048323110685949015
sg21
g5
sS'fraction_loan_advances'
p814
F0.0
sg23
g5
sg24
I7890324
sg25
I204
sS'fraction_bonus'
p815
F0.0
sg27
I49
sS'fraction_other'
p816
F0.0
sg29
I381285
sg30
I96840
sg31
I111529
sg32
I7509039
sS'fraction_salary'
p817
F0.8682943449685732
ssS'BAZELIDES PHILIP J'
p818
(dp819
g3
g5
sg4
I684694
sS'fraction_exercised_stock_options'
p820
F1.0
sg7
g5
sg8
I00
sg9
g5
sg10
g5
sg12
I93750
sS'fraction_expenses'
p821
F0.0
sg14
g38
sg15
g5
sg39
g38
sg16
g5
sg17
g5
sg18
g5
sg19
I874
sS'fraction_restricted_stock'
p822
F0.0
sg21
g5
sS'fraction_loan_advances'
p823
F0.0
sg23
g5
sg24
I1599641
sg25
g5
sS'fraction_bonus'
p824
F0.0
sg27
g5
sS'fraction_other'
p825
F0.0010161183812792396
sg29
g5
sg30
I80818
sg31
I860136
sg44
g38
sg32
I1599641
sS'fraction_salary'
p826
F0.0939595598835533
ssS'BELDEN TIMOTHY N'
p827
(dp828
g3
I7991
sg4
I2144013
sS'fraction_exercised_stock_options'
p829
F0.8581360487258093
sg7
I17355
sg8
I01
sg9
I-2334434
sg10
S'tim.belden@enron.com'
p830
sg12
g5
sS'fraction_expenses'
p831
F0.003154519660536968
sg14
F0.2231404958677686
sg15
g5
sg16
I5521
sg17
g5
sg18
I484
sg19
I210698
sS'fraction_restricted_stock'
p832
F0.1418639512741907
sg21
g5
sS'fraction_loan_advances'
p833
F0.0
sg23
I5249999
sg24
I1110705
sg25
I228
sS'fraction_bonus'
p834
F0.9542624640333864
sg27
I108
sS'fraction_other'
p835
F0.03829737732272072
sg29
I157569
sg30
I213999
sg31
I5501630
sg32
I953136
sS'fraction_salary'
p836
F0.03889738132153562
ssS'DURAN WILLIAM D'
p837
(dp838
g3
I904
sg4
g5
sS'fraction_exercised_stock_options'
p839
F0.8847950222742259
sg7
I25785
sg8
I00
sg9
g5
sg10
S'w.duran@enron.com'
p840
sg12
I1105218
sS'fraction_expenses'
p841
F0.01231808903133529
sg14
F0.25
sg15
g5
sg16
I599
sg17
g5
sg18
I12
sg19
I1568
sS'fraction_restricted_stock'
p842
F0.11520497772577411
sg21
g5
sS'fraction_loan_advances'
p843
F0.0
sg23
I750000
sg24
I1640910
sg25
I106
sS'fraction_bonus'
p844
F0.3582922929416896
sg27
I3
sS'fraction_other'
p845
F0.0007490697537767591
sg29
I189041
sg30
I210692
sg31
I2093263
sg32
I1451869
sS'fraction_salary'
p846
F0.10065242637929396
ssS'THORN TERENCE H'
p847
(dp848
g3
I266
sg4
I16586
sS'fraction_exercised_stock_options'
p849
F0.9241727960254025
sg7
I46145
sg8
I00
sg9
g5
sg10
S'terence.thorn@enron.com'
p850
sg12
I200000
sS'fraction_expenses'
p851
F0.050627953388710116
sg14
F0.0
sg15
g5
sg16
I73
sg17
g5
sg18
I41
sg19
I426629
sS'fraction_restricted_stock'
p852
F0.07582720397459751
sg21
g5
sS'fraction_loan_advances'
p853
F0.0
sg23
g5
sg24
I4817796
sg25
I0
sS'fraction_bonus'
p854
F0.0
sg27
I0
sS'fraction_other'
p855
F0.4680756989115182
sg29
I365320
sg30
I222093
sg31
I911453
sg32
I4452476
sS'fraction_salary'
p856
F0.24366917438419755
ssS'FASTOW ANDREW S'
p857
(dp858
g3
g5
sg4
g5
sS'fraction_exercised_stock_options'
p859
F0.0
sg7
I55921
sg8
I01
sg9
I-1386055
sg10
S'andrew.fastow@enron.com'
p860
sg12
I1736055
sS'fraction_expenses'
p861
F0.02306892957048088
sg14
g38
sg15
g5
sg39
g38
sg16
g5
sg17
g5
sg18
g5
sg19
I277464
sS'fraction_restricted_stock'
p862
F1.0
sg21
g5
sS'fraction_loan_advances'
p863
F0.0
sg23
I1300000
sg24
I1794412
sg25
g5
sS'fraction_bonus'
p864
F0.5362852674599013
sg27
g5
sS'fraction_other'
p865
F0.11446142726961082
sg29
I1794412
sg30
I440698
sg31
I2424083
sg44
g38
sg32
g5
sS'fraction_salary'
p866
F0.1817998806146489
ssS'FOY JOE'
p867
(dp868
g3
I57
sg4
I181755
sS'fraction_exercised_stock_options'
p869
F1.0
sg7
g5
sg8
I00
sg9
g5
sg10
S'tracy.foy@enron.com'
p870
sg12
g5
sS'fraction_expenses'
p871
F0.0
sg14
F0.0
sg15
g5
sg16
I2
sg17
g5
sg18
I13
sg19
g5
sS'fraction_restricted_stock'
p872
F0.0
sg21
g5
sS'fraction_loan_advances'
p873
F0.0
sg23
g5
sg24
I343434
sg25
I0
sS'fraction_bonus'
p874
F0.0
sg27
I0
sS'fraction_other'
p875
F0.0
sg29
g5
sg30
g5
sg31
I181755
sg32
I343434
sS'fraction_salary'
p876
F0.0
ssS'CALGER CHRISTOPHER F'
p877
(dp878
g3
I2598
sg4
g5
sS'fraction_exercised_stock_options'
p879
F0.0
sg7
I35818
sg8
I01
sg9
I-262500
sg10
S'christopher.calger@enron.com'
p880
sg12
I375304
sS'fraction_expenses'
p881
F0.021849609924254117
sg14
F0.1736111111111111
sg15
g5
sg16
I2188
sg17
g5
sg18
I144
sg19
I486
sS'fraction_restricted_stock'
p882
F1.0
sg21
g5
sS'fraction_loan_advances'
p883
F0.0
sg23
I1250000
sg24
I126027
sg25
I199
sS'fraction_bonus'
p884
F0.7625219835087845
sg27
I25
sS'fraction_other'
p885
F0.00029646854718821546
sg29
I126027
sg30
I240189
sg31
I1639297
sg32
g5
sS'fraction_salary'
p886
F0.14651951415759315
ssS'RICE KENNETH D'
p887
(dp888
g3
I905
sg4
g5
sS'fraction_exercised_stock_options'
p889
F0.8780809916753388
sg7
I46950
sg8
I01
sg9
I-3504386
sg10
S'ken.rice@enron.com'
p890
sg12
I1617011
sS'fraction_expenses'
p891
F0.09296109296109296
sg14
F0.2222222222222222
sg15
g5
sg16
I864
sg17
g5
sg18
I18
sg19
I174839
sS'fraction_restricted_stock'
p892
F0.12191900832466121
sg21
g5
sS'fraction_loan_advances'
p893
F0.0
sg23
I1750000
sg24
I22542539
sg25
I42
sS'fraction_bonus'
p894
F3.465003465003465
sg27
I4
sS'fraction_other'
p895
F0.3461815661815662
sg29
I2748364
sg30
I420636
sg31
I505050
sg32
I19794175
sS'fraction_salary'
p896
F0.8328601128601129
ssS'KAMINSKI WINCENTY J'
p897
(dp898
g3
I4607
sg4
g5
sS'fraction_exercised_stock_options'
p899
F0.8708788703706929
sg7
I83585
sg8
I00
sg9
g5
sg10
S'vince.kaminski@enron.com'
p900
sg12
I323466
sS'fraction_expenses'
p901
F0.07690778886311546
sg14
F0.011901447661469933
sg15
g5
sg16
I583
sg17
g5
sg18
I14368
sg19
I4669
sS'fraction_restricted_stock'
p902
F0.12912112962930708
sg21
g5
sS'fraction_loan_advances'
p903
F0.0
sg23
I400000
sg24
I976037
sg25
I41
sS'fraction_bonus'
p904
F0.368045887961311
sg27
I171
sS'fraction_other'
p905
F0.004296015627228403
sg29
I126027
sg30
I275101
sg31
I1086821
sg32
I850010
sS'fraction_salary'
p906
F0.2531244795601116
ssS'LOCKHART EUGENE E'
p907
(dp908
g3
g5
sg4
g5
sS'fraction_exercised_stock_options'
p909
F0.0
sg7
g5
sg8
I00
sg9
g5
sg10
g5
sg12
g5
sS'fraction_expenses'
p910
F0.0
sg14
g38
sg15
g5
sg39
g38
sg16
g5
sg17
g5
sg18
g5
sg19
g5
sS'fraction_restricted_stock'
p911
F0.0
sg21
g5
sS'fraction_loan_advances'
p912
F0.0
sg23
g5
sg24
g5
sg25
g5
sS'fraction_bonus'
p913
F0.0
sg27
g5
sS'fraction_other'
p914
F0.0
sg29
g5
sg30
g5
sg31
g5
sg44
g38
sg32
g5
sS'fraction_salary'
p915
F0.0
ssS'COX DAVID'
p916
(dp917
g3
I102
sg4
g5
sS'fraction_exercised_stock_options'
p918
F0.23717347311417925
sg7
I27861
sg8
I00
sg9
I-41250
sg10
S'chip.cox@enron.com'
p919
sg12
g5
sS'fraction_expenses'
p920
F0.025296147696598763
sg14
F0.12121212121212122
sg15
g5
sg16
I71
sg17
g5
sg18
I33
sg19
I494
sS'fraction_restricted_stock'
p921
F0.7628265268858208
sg21
g5
sS'fraction_loan_advances'
p922
F0.0
sg23
I800000
sg24
I495633
sg25
I0
sS'fraction_bonus'
p923
F0.7263529003725282
sg27
I4
sS'fraction_other'
p924
F0.0004485229159800362
sg29
I378082
sg30
I314288
sg31
I1101393
sg32
I117551
sS'fraction_salary'
p925
F0.28535500044035145
ssS'OVERDYKE JR JERE C'
p926
(dp927
g3
g5
sg4
g5
sS'fraction_exercised_stock_options'
p928
F0.7206993163550137
sg7
I18834
sg8
I00
sg9
g5
sg10
S'jere.overdyke@enron.com'
p929
sg12
I135836
sS'fraction_expenses'
p930
F0.07540024100533654
sg14
g38
sg15
g5
sg39
g38
sg16
g5
sg17
g5
sg18
g5
sg19
I176
sS'fraction_restricted_stock'
p931
F0.2793006836449863
sg21
g5
sS'fraction_loan_advances'
p932
F0.0
sg23
g5
sg24
I7307594
sg25
g5
sS'fraction_bonus'
p933
F0.0
sg27
g5
sS'fraction_other'
p934
F0.0007046003194721903
sg29
I2041016
sg30
I94941
sg31
I249787
sg44
g38
sg32
I5266578
sS'fraction_salary'
p935
F0.38008783483527964
ssS'PEREIRA PAULO V. FERRAZ'
p936
(dp937
g3
g5
sg4
g5
sS'fraction_exercised_stock_options'
p938
F0.0
sg7
I27942
sg8
I00
sg9
I-101250
sg10
g5
sg12
g5
sS'fraction_expenses'
p939
F1.0
sg14
g38
sg15
g5
sg39
g38
sg16
g5
sg17
g5
sg18
g5
sg19
g5
sS'fraction_restricted_stock'
p940
F0.0
sg21
I101250
sS'fraction_loan_advances'
p941
F0.0
sg23
g5
sg24
g5
sg25
g5
sS'fraction_bonus'
p942
F0.0
sg27
g5
sS'fraction_other'
p943
F0.0
sg29
g5
sg30
g5
sg31
I27942
sg44
g38
sg32
g5
sS'fraction_salary'
p944
F0.0
ssS'STABLER FRANK'
p945
(dp946
g3
g5
sg4
g5
sS'fraction_exercised_stock_options'
p947
F0.0
sg7
I16514
sg8
I00
sg9
g5
sg10
S'frank.stabler@enron.com'
p948
sg12
g5
sS'fraction_expenses'
p949
F0.01484955763353047
sg14
g38
sg15
g5
sg39
g38
sg16
g5
sg17
g5
sg18
g5
sg19
I356071
sS'fraction_restricted_stock'
p950
F1.0
sg21
g5
sS'fraction_loan_advances'
p951
F0.0
sg23
I500000
sg24
I511734
sg25
g5
sS'fraction_bonus'
p952
F0.44960511183027946
sg27
g5
sS'fraction_other'
p953
F0.3201826835490389
sg29
I511734
sg30
I239502
sg31
I1112087
sg44
g38
sg32
g5
sS'fraction_salary'
p954
F0.21536264698715119
ssS'SKILLING JEFFREY K'
p955
(dp956
g3
I3627
sg4
g5
sS'fraction_exercised_stock_options'
p957
F0.7377267561269261
sg7
I29336
sg8
I01
sg9
g5
sg10
S'jeff.skilling@enron.com'
p958
sg12
I1920000
sS'fraction_expenses'
p959
F0.003378666306717852
sg14
F0.2777777777777778
sg15
g5
sg16
I2042
sg17
g5
sg18
I108
sg19
I22122
sS'fraction_restricted_stock'
p960
F0.2622732438730739
sg21
g5
sS'fraction_loan_advances'
p961
F0.0
sg23
I5600000
sg24
I26093672
sg25
I88
sS'fraction_bonus'
p962
F0.6449594804206426
sg27
I30
sS'fraction_other'
p963
F0.002547820290333117
sg29
I6843672
sg30
I1111258
sg31
I8682716
sg32
I19250000
sS'fraction_salary'
p964
F0.12798506826665756
ssS'BLAKE JR. NORMAN P'
p965
(dp966
g3
g5
sg4
g5
sS'fraction_exercised_stock_options'
p967
F0.0
sg7
I1279
sg8
I00
sg9
I-113784
sg10
g5
sg12
g5
sS'fraction_expenses'
p968
F1.0
sg14
g38
sg15
g5
sg39
g38
sg16
g5
sg17
g5
sg18
g5
sg19
g5
sS'fraction_restricted_stock'
p969
F0.0
sg21
I113784
sS'fraction_loan_advances'
p970
F0.0
sg23
g5
sg24
g5
sg25
g5
sS'fraction_bonus'
p971
F0.0
sg27
g5
sS'fraction_other'
p972
F0.0
sg29
g5
sg30
g5
sg31
I1279
sg44
g38
sg32
g5
sS'fraction_salary'
p973
F0.0
ssS'SHERRICK JEFFREY B'
p974
(dp975
g3
I613
sg4
g5
sS'fraction_exercised_stock_options'
p976
F0.7784414243522942
sg7
g5
sg8
I00
sg9
g5
sg10
S'jeffrey.sherrick@enron.com'
p977
sg12
g5
sS'fraction_expenses'
p978
F0.0
sg14
F0.72
sg15
g5
sg16
I583
sg17
g5
sg18
I25
sg19
g5
sS'fraction_restricted_stock'
p979
F0.22155857564770573
sg21
g5
sS'fraction_loan_advances'
p980
F0.0
sg23
g5
sg24
I1832468
sg25
I39
sS'fraction_bonus'
p981
F0.0
sg27
I18
sS'fraction_other'
p982
F0.0
sg29
I405999
sg30
g5
sg31
g5
sg32
I1426469
sS'fraction_salary'
p983
F0.0
ssS'PRENTICE JAMES'
p984
(dp985
g3
g5
sg4
I564348
sS'fraction_exercised_stock_options'
p986
F0.8093138150204559
sg7
g5
sg8
I00
sg9
g5
sg10
S'james.prentice@enron.com'
p987
sg12
g5
sS'fraction_expenses'
p988
F0.0
sg14
g38
sg15
g5
sg39
g38
sg16
g5
sg17
g5
sg18
g5
sg19
g5
sS'fraction_restricted_stock'
p989
F0.19068618497954412
sg21
g5
sS'fraction_loan_advances'
p990
F0.0
sg23
g5
sg24
I1095040
sg25
g5
sS'fraction_bonus'
p991
F0.0
sg27
g5
sS'fraction_other'
p992
F0.0
sg29
I208809
sg30
g5
sg31
I564348
sg44
g38
sg32
I886231
sS'fraction_salary'
p993
F0.0
ssS'GRAY RODNEY'
p994
(dp995
g3
g5
sg4
I93585
sS'fraction_exercised_stock_options'
p996
F0.0
sg7
g5
sg8
I00
sg9
g5
sg10
g5
sg12
I365625
sS'fraction_expenses'
p997
F0.0
sg14
g38
sg15
g5
sg39
g38
sg16
g5
sg17
g5
sg18
g5
sg19
I680833
sS'fraction_restricted_stock'
p998
F0.0
sg21
g5
sS'fraction_loan_advances'
p999
F0.0
sg23
g5
sg24
g5
sg25
g5
sS'fraction_bonus'
p1000
F0.0
sg27
g5
sS'fraction_other'
p1001
F0.5937541969793958
sg29
g5
sg30
I6615
sg31
I1146658
sg44
g38
sg32
g5
sS'fraction_salary'
p1002
F0.005768938951282772
ssS'PICKERING MARK R'
p1003
(dp1004
g3
I898
sg4
g5
sS'fraction_exercised_stock_options'
p1005
F1.0
sg7
I31653
sg8
I00
sg9
g5
sg10
S'mark.pickering@enron.com'
p1006
sg12
g5
sS'fraction_expenses'
p1007
F0.022826298595937086
sg14
F0.0
sg15
g5
sg16
I728
sg17
I400000
sg18
I67
sg19
g5
sS'fraction_restricted_stock'
p1008
F0.0
sg21
g5
sS'fraction_loan_advances'
p1009
F0.28845668462309526
sg23
I300000
sg24
I28798
sg25
I7
sS'fraction_bonus'
p1010
F0.21634251346732147
sg27
I0
sS'fraction_other'
p1011
F0.0
sg29
g5
sg30
I655037
sg31
I1386690
sg32
I28798
sS'fraction_salary'
p1012
F0.47237450331364617
ssS'THE TRAVEL AGENCY IN THE PARK'
p1013
(dp1014
g3
g5
sg4
g5
sS'fraction_exercised_stock_options'
p1015
F0.0
sg7
g5
sg8
I00
sg9
g5
sg10
g5
sg12
g5
sS'fraction_expenses'
p1016
F0.0
sg14
g38
sg15
g5
sg39
g38
sg16
g5
sg17
g5
sg18
g5
sg19
I362096
sS'fraction_restricted_stock'
p1017
F0.0
sg21
g5
sS'fraction_loan_advances'
p1018
F0.0
sg23
g5
sg24
g5
sg25
g5
sS'fraction_bonus'
p1019
F0.0
sg27
g5
sS'fraction_other'
p1020
F1.0
sg29
g5
sg30
g5
sg31
I362096
sg44
g38
sg32
g5
sS'fraction_salary'
p1021
F0.0
ssS'NOLES JAMES L'
p1022
(dp1023
g3
g5
sg4
I774401
sS'fraction_exercised_stock_options'
p1024
F0.0
sg7
g5
sg8
I00
sg9
g5
sg10
g5
sg12
g5
sS'fraction_expenses'
p1025
F0.0
sg14
g38
sg15
I-94556
sg39
g38
sg16
g5
sg17
g5
sg18
g5
sg19
g5
sS'fraction_restricted_stock'
p1026
F1.2564543469711558
sg21
g5
sS'fraction_loan_advances'
p1027
F0.0
sg23
g5
sg24
I368705
sg25
g5
sS'fraction_bonus'
p1028
F0.0
sg27
g5
sS'fraction_other'
p1029
F0.0
sg29
I463261
sg30
g5
sg31
I774401
sg44
g38
sg32
g5
sS'fraction_salary'
p1030
F0.0
ssS'KEAN STEVEN J'
p1031
(dp1032
g3
I12754
sg4
g5
sS'fraction_exercised_stock_options'
p1033
F0.32859370109603386
sg7
I41953
sg8
I00
sg9
g5
sg10
S'steven.kean@enron.com'
p1034
sg12
I300000
sS'fraction_expenses'
p1035
F0.02400713696308258
sg14
F0.05725699067909454
sg15
g5
sg16
I3639
sg17
g5
sg18
I6759
sg19
I1231
sS'fraction_restricted_stock'
p1036
F0.6714062989039662
sg21
g5
sS'fraction_loan_advances'
p1037
F0.0
sg23
I1000000
sg24
I6153642
sg25
I140
sS'fraction_bonus'
p1038
F0.5722388616566773
sg27
I387
sS'fraction_other'
p1039
F0.0007044260386993697
sg29
I4131594
sg30
I404338
sg31
I1747522
sg32
I2022048
sS'fraction_salary'
p1040
F0.23137791684453757
ssS'FOWLER PEGGY'
p1041
(dp1042
g3
I517
sg4
g5
sS'fraction_exercised_stock_options'
p1043
F0.7027878528057863
sg7
g5
sg8
I00
sg9
g5
sg10
S'kulvinder.fowler@enron.com'
p1044
sg12
g5
sS'fraction_expenses'
p1045
F0.0
sg14
F0.0
sg15
g5
sg16
I10
sg17
g5
sg18
I36
sg19
g5
sS'fraction_restricted_stock'
p1046
F0.29721214719421374
sg21
g5
sS'fraction_loan_advances'
p1047
F0.0
sg23
g5
sg24
I1884748
sg25
I0
sS'fraction_bonus'
p1048
F0.0
sg27
I0
sS'fraction_other'
p1049
F0.0
sg29
I560170
sg30
g5
sg31
g5
sg32
I1324578
sS'fraction_salary'
p1050
F0.0
ssS'WASAFF GEORGE'
p1051
(dp1052
g3
I400
sg4
I831299
sS'fraction_exercised_stock_options'
p1053
F0.8112420231790382
sg7
g5
sg8
I00
sg9
I-583325
sg10
S'george.wasaff@enron.com'
p1054
sg12
I200000
sS'fraction_expenses'
p1055
F0.0
sg14
F0.23333333333333334
sg15
g5
sg16
I337
sg17
g5
sg18
I30
sg19
I1425
sS'fraction_restricted_stock'
p1056
F0.1887579768209618
sg21
g5
sS'fraction_loan_advances'
p1057
F0.0
sg23
I325000
sg24
I2056427
sg25
I22
sS'fraction_bonus'
p1058
F0.3141933207333755
sg27
I7
sS'fraction_other'
p1059
F0.0013776168678309544
sg29
I388167
sg30
I259996
sg31
I1034395
sg32
I1668260
sS'fraction_salary'
p1060
F0.2513507895919837
ssS'WHITE JR THOMAS E'
p1061
(dp1062
g3
g5
sg4
g5
sS'fraction_exercised_stock_options'
p1063
F0.08564701963923563
sg7
I81353
sg8
I00
sg9
g5
sg10
S'thomas.white@enron.com'
p1064
sg12
g5
sS'fraction_expenses'
p1065
F0.042056826059692125
sg14
g38
sg15
g5
sg39
g38
sg16
g5
sg17
g5
sg18
g5
sg19
I1085463
sS'fraction_restricted_stock'
p1066
F0.9143529803607644
sg21
g5
sS'fraction_loan_advances'
p1067
F0.0
sg23
I450000
sg24
I15144123
sg25
g5
sS'fraction_bonus'
p1068
F0.23263520370313887
sg27
g5
sS'fraction_other'
p1069
F0.5611486802604894
sg29
I13847074
sg30
I317543
sg31
I1934359
sg44
g38
sg32
I1297049
sS'fraction_salary'
p1070
F0.1641592899766796
ssS'CHRISTODOULOU DIOMEDES'
p1071
(dp1072
g3
g5
sg4
g5
sS'fraction_exercised_stock_options'
p1073
F0.8435755201027989
sg7
g5
sg8
I00
sg9
g5
sg10
S'diomedes.christodoulou@enron.com'
p1074
sg12
g5
sS'fraction_expenses'
p1075
F0.0
sg14
g38
sg15
g5
sg39
g38
sg16
g5
sg17
g5
sg18
g5
sg19
g5
sS'fraction_restricted_stock'
p1076
F0.15642447989720107
sg21
g5
sS'fraction_loan_advances'
p1077
F0.0
sg23
g5
sg24
I6077885
sg25
g5
sS'fraction_bonus'
p1078
F0.0
sg27
g5
sS'fraction_other'
p1079
F0.0
sg29
I950730
sg30
g5
sg31
g5
sg44
g38
sg32
I5127155
sS'fraction_salary'
p1080
F0.0
ssS'ALLEN PHILLIP K'
p1081
(dp1082
g3
I2902
sg4
I2869717
sS'fraction_exercised_stock_options'
p1083
F1.0
sg7
I13868
sg8
I00
sg9
I-3081055
sg10
S'phillip.allen@enron.com'
p1084
sg12
I304805
sS'fraction_expenses'
p1085
F0.0030924694755780093
sg14
F0.029612756264236904
sg15
I-126027
sg16
I1407
sg17
g5
sg18
I2195
sg19
I152
sS'fraction_restricted_stock'
p1086
F0.07286730988163911
sg21
g5
sS'fraction_loan_advances'
p1087
F0.0
sg23
I4175000
sg24
I1729541
sg25
I47
sS'fraction_bonus'
p1088
F0.9309965431596617
sg27
I65
sS'fraction_other'
p1089
F3.38949639665314e-05
sg29
I126027
sg30
I201955
sg31
I4484442
sg32
I1729541
sS'fraction_salary'
p1090
F0.04503458847276874
ssS'SHARP VICTORIA T'
p1091
(dp1092
g3
I3136
sg4
I187469
sS'fraction_exercised_stock_options'
p1093
F0.5688170867939191
sg7
I116337
sg8
I00
sg9
g5
sg10
S'vicki.sharp@enron.com'
p1094
sg12
I422158
sS'fraction_expenses'
p1095
F0.07379396655018582
sg14
F0.04411764705882353
sg15
g5
sg16
I2477
sg17
g5
sg18
I136
sg19
I2401
sS'fraction_restricted_stock'
p1096
F0.43118291320608093
sg21
g5
sS'fraction_loan_advances'
p1097
F0.0
sg23
I600000
sg24
I494136
sg25
I24
sS'fraction_bonus'
p1098
F0.38058725882661143
sg27
I6
sS'fraction_other'
p1099
F0.00152298334740449
sg29
I213063
sg30
I248146
sg31
I1576511
sg32
I281073
sS'fraction_salary'
p1100
F0.15740200988131386
ssS'JAEDICKE ROBERT'
p1101
(dp1102
g3
g5
sg4
g5
sS'fraction_exercised_stock_options'
p1103
F1.0
sg7
g5
sg8
I00
sg9
I-25000
sg10
g5
sg12
g5
sS'fraction_expenses'
p1104
F0.0
sg14
g38
sg15
I-44093
sg39
g38
sg16
g5
sg17
g5
sg18
g5
sg19
g5
sS'fraction_restricted_stock'
p1105
F0.10212623045744065
sg21
I108750
sS'fraction_loan_advances'
p1106
F0.0
sg23
g5
sg24
I431750
sg25
g5
sS'fraction_bonus'
p1107
F0.0
sg27
g5
sS'fraction_other'
p1108
F0.0
sg29
I44093
sg30
g5
sg31
I83750
sg44
g38
sg32
I431750
sS'fraction_salary'
p1109
F0.0
ssS'WINOKUR JR. HERBERT S'
p1110
(dp1111
g3
g5
sg4
g5
sS'fraction_exercised_stock_options'
p1112
F0.0
sg7
I1413
sg8
I00
sg9
I-25000
sg10
g5
sg12
g5
sS'fraction_expenses'
p1113
F0.016625094126506024
sg14
g38
sg15
g5
sg39
g38
sg16
g5
sg17
g5
sg18
g5
sg19
g5
sS'fraction_restricted_stock'
p1114
F0.0
sg21
I108579
sS'fraction_loan_advances'
p1115
F0.0
sg23
g5
sg24
g5
sg25
g5
sS'fraction_bonus'
p1116
F0.0
sg27
g5
sS'fraction_other'
p1117
F0.0
sg29
g5
sg30
g5
sg31
I84992
sg44
g38
sg32
g5
sS'fraction_salary'
p1118
F0.0
ssS'BROWN MICHAEL'
p1119
(dp1120
g3
I1486
sg4
g5
sS'fraction_exercised_stock_options'
p1121
F0.0
sg7
I49288
sg8
I00
sg9
g5
sg10
S'michael.brown@enron.com'
p1122
sg12
g5
sS'fraction_expenses'
p1123
F1.0
sg14
F0.024390243902439025
sg15
g5
sg16
I761
sg17
g5
sg18
I41
sg19
g5
sS'fraction_restricted_stock'
p1124
F0.0
sg21
g5
sS'fraction_loan_advances'
p1125
F0.0
sg23
g5
sg24
g5
sg25
I13
sS'fraction_bonus'
p1126
F0.0
sg27
I1
sS'fraction_other'
p1127
F0.0
sg29
g5
sg30
g5
sg31
I49288
sg32
g5
sS'fraction_salary'
p1128
F0.0
ssS'BADUM JAMES P'
p1129
(dp1130
g3
g5
sg4
I178980
sS'fraction_exercised_stock_options'
p1131
F1.0
sg7
I3486
sg8
I00
sg9
g5
sg10
g5
sg12
g5
sS'fraction_expenses'
p1132
F0.019104929137483146
sg14
g38
sg15
g5
sg39
g38
sg16
g5
sg17
g5
sg18
g5
sg19
g5
sS'fraction_restricted_stock'
p1133
F0.0
sg21
g5
sS'fraction_loan_advances'
p1134
F0.0
sg23
g5
sg24
I257817
sg25
g5
sS'fraction_bonus'
p1135
F0.0
sg27
g5
sS'fraction_other'
p1136
F0.0
sg29
g5
sg30
g5
sg31
I182466
sg44
g38
sg32
I257817
sS'fraction_salary'
p1137
F0.0
ssS'HUGHES JAMES A'
p1138
(dp1139
g3
I719
sg4
g5
sS'fraction_exercised_stock_options'
p1140
F0.6750447516706992
sg7
g5
sg8
I00
sg9
g5
sg10
S'james.hughes@enron.com'
p1141
sg12
g5
sS'fraction_expenses'
p1142
F0.0
sg14
F0.14705882352941177
sg15
g5
sg16
I589
sg17
g5
sg18
I34
sg19
g5
sS'fraction_restricted_stock'
p1143
F0.3249552483293008
sg21
g5
sS'fraction_loan_advances'
p1144
F0.0
sg23
g5
sg24
I1118394
sg25
I35
sS'fraction_bonus'
p1145
F0.0
sg27
I5
sS'fraction_other'
p1146
F0.0
sg29
I363428
sg30
g5
sg31
g5
sg32
I754966
sS'fraction_salary'
p1147
F0.0
ssS'REYNOLDS LAWRENCE'
p1148
(dp1149
g3
g5
sg4
I51365
sS'fraction_exercised_stock_options'
p1150
F0.9854996256416853
sg7
I8409
sg8
I00
sg9
I-200000
sg10
g5
sg12
I156250
sS'fraction_expenses'
p1151
F0.021316940237023893
sg14
g38
sg15
I-140264
sg39
g38
sg16
g5
sg17
g5
sg18
g5
sg19
I202052
sS'fraction_restricted_stock'
p1152
F0.047723401670009956
sg21
g5
sS'fraction_loan_advances'
p1153
F0.0
sg23
I100000
sg24
I4221891
sg25
g5
sS'fraction_bonus'
p1154
F0.2535014893212498
sg27
g5
sS'fraction_other'
p1155
F0.5122048292033715
sg29
I201483
sg30
I76399
sg31
I394475
sg44
g38
sg32
I4160672
sS'fraction_salary'
p1156
F0.1936726028265416
ssS'DIMICHELE RICHARD G'
p1157
(dp1158
g3
g5
sg4
g5
sS'fraction_exercised_stock_options'
p1159
F0.9848484848484849
sg7
I35812
sg8
I00
sg9
g5
sg10
S'richard.dimichele@enron.com'
p1160
sg12
I694862
sS'fraction_expenses'
p1161
F0.015122346505776025
sg14
g38
sg15
g5
sg39
g38
sg16
g5
sg17
g5
sg18
g5
sg19
I374689
sS'fraction_restricted_stock'
p1162
F0.015151515151515152
sg21
g5
sS'fraction_loan_advances'
p1163
F0.0
sg23
I1000000
sg24
I8317782
sg25
g5
sS'fraction_bonus'
p1164
F0.42227037042823706
sg27
g5
sS'fraction_other'
p1165
F0.1582200628253857
sg29
I126027
sg30
I262788
sg31
I2368151
sg44
g38
sg32
I8191755
sS'fraction_salary'
p1166
F0.11096758610409556
ssS'BHATNAGAR SANJAY'
p1167
(dp1168
g3
I523
sg4
g5
sS'fraction_exercised_stock_options'
p1169
F0.0
sg7
g5
sg8
I00
sg9
g5
sg10
S'sanjay.bhatnagar@enron.com'
p1170
sg12
g5
sS'fraction_expenses'
p1171
F0.0
sg14
F0.034482758620689655
sg15
I15456290
sg16
I463
sg17
g5
sg18
I29
sg19
I137864
sS'fraction_restricted_stock'
p1172
F0.0
sg21
I137864
sS'fraction_loan_advances'
p1173
F0.0
sg23
g5
sS'total_stock_value'
p1174
S'NaN'
p1175
sg25
I0
sS'fraction_bonus'
p1176
F0.0
sg27
I1
sS'fraction_other'
p1177
F0.00891960489871761
sg29
I-2604490
sg30
g5
sg31
I15456290
sg32
I2604490
sS'fraction_salary'
p1178
F0.0
ssS'CARTER REBECCA C'
p1179
(dp1180
g3
I312
sg4
g5
sS'fraction_exercised_stock_options'
p1181
F0.0
sg7
g5
sg8
I00
sg9
I-159792
sg10
S'rebecca.carter@enron.com'
p1182
sg12
I75000
sS'fraction_expenses'
p1183
F0.0
sg14
F0.4666666666666667
sg15
I-307301
sg16
I196
sg17
g5
sg18
I15
sg19
I540
sS'fraction_restricted_stock'
p1184
F0.0
sg21
g5
sS'fraction_loan_advances'
p1185
F0.0
sg23
I300000
sg24
g5
sg25
I29
sS'fraction_bonus'
p1186
F0.6281972623163308
sg27
I7
sS'fraction_other'
p1187
F0.0011307550721693955
sg29
I307301
sg30
I261809
sg31
I477557
sg32
g5
sS'fraction_salary'
p1188
F0.5482256568325875
ssS'BUCHANAN HAROLD G'
p1189
(dp1190
g3
I1088
sg4
g5
sS'fraction_exercised_stock_options'
p1191
F0.8136618350821336
sg7
I600
sg8
I00
sg9
g5
sg10
S'john.buchanan@enron.com'
p1192
sg12
I304805
sS'fraction_expenses'
p1193
F0.000568916129436005
sg14
F0.0
sg15
g5
sg16
I23
sg17
g5
sg18
I125
sg19
I1215
sS'fraction_restricted_stock'
p1194
F0.18633816491786634
sg21
g5
sS'fraction_loan_advances'
p1195
F0.0
sg23
I500000
sg24
I1014505
sg25
I0
sS'fraction_bonus'
p1196
F0.47409677453000415
sg27
I0
sS'fraction_other'
p1197
F0.0011520551621079101
sg29
I189041
sg30
I248017
sg31
I1054637
sg32
I825464
sS'fraction_salary'
p1198
F0.23516811945721608
ssS'YEAP SOON'
p1199
(dp1200
g3
g5
sg4
g5
sS'fraction_exercised_stock_options'
p1201
F1.0
sg7
I55097
sg8
I00
sg9
g5
sg10
g5
sg12
g5
sS'fraction_expenses'
p1202
F1.0
sg14
g38
sg15
g5
sg39
g38
sg16
g5
sg17
g5
sg18
g5
sg19
g5
sS'fraction_restricted_stock'
p1203
F0.0
sg21
g5
sS'fraction_loan_advances'
p1204
F0.0
sg23
g5
sg24
I192758
sg25
g5
sS'fraction_bonus'
p1205
F0.0
sg27
g5
sS'fraction_other'
p1206
F0.0
sg29
g5
sg30
g5
sg31
I55097
sg44
g38
sg32
I192758
sS'fraction_salary'
p1207
F0.0
ssS'MURRAY JULIA H'
p1208
(dp1209
g3
I2192
sg4
g5
sS'fraction_exercised_stock_options'
p1210
F0.6702998187329382
sg7
I57580
sg8
I00
sg9
g5
sg10
S'julia.murray@enron.com'
p1211
sg12
I125000
sS'fraction_expenses'
p1212
F0.07089439222648776
sg14
F0.044444444444444446
sg15
g5
sg16
I395
sg17
g5
sg18
I45
sg19
I330
sS'fraction_restricted_stock'
p1213
F0.3297001812670618
sg21
g5
sS'fraction_loan_advances'
p1214
F0.0
sg23
I400000
sg24
I597461
sg25
I11
sS'fraction_bonus'
p1215
F0.4924931728133919
sg27
I2
sS'fraction_other'
p1216
F0.0004063068675710483
sg29
I196983
sg30
I229284
sg31
I812194
sg32
I400478
sS'fraction_salary'
p1217
F0.2823020115883644
ssS'GARLAND C KEVIN'
p1218
(dp1219
g3
I209
sg4
g5
sS'fraction_exercised_stock_options'
p1220
F0.7099747476156415
sg7
I48405
sg8
I00
sg9
g5
sg10
S'kevin.garland@enron.com'
p1221
sg12
I375304
sS'fraction_expenses'
p1222
F0.03090070725944784
sg14
F0.6136363636363636
sg15
g5
sg16
I178
sg17
g5
sg18
I44
sg19
I60814
sS'fraction_restricted_stock'
p1223
F0.2900252523843585
sg21
g5
sS'fraction_loan_advances'
p1224
F0.0
sg23
I850000
sg24
I896153
sg25
I10
sS'fraction_bonus'
p1225
F0.5426216541789208
sg27
I27
sS'fraction_other'
p1226
F0.038822345032043404
sg29
I259907
sg30
I231946
sg31
I1566469
sg32
I636246
sS'fraction_salary'
p1227
F0.14806932023551056
ssS'DODSON KEITH'
p1228
(dp1229
g3
I176
sg4
g5
sS'fraction_exercised_stock_options'
p1230
F0.0
sg7
I28164
sg8
I00
sg9
g5
sg10
S'keith.dodson@enron.com'
p1231
sg12
g5
sS'fraction_expenses'
p1232
F0.08802873029714854
sg14
F0.21428571428571427
sg15
g5
sg16
I114
sg17
g5
sg18
I14
sg19
I774
sS'fraction_restricted_stock'
p1233
F0.0
sg21
g5
sS'fraction_loan_advances'
p1234
F0.0
sg23
I70000
sg24
g5
sg25
I10
sS'fraction_bonus'
p1235
F0.21879033946883958
sg27
I3
sS'fraction_other'
p1236
F0.0024191960392697404
sg29
g5
sg30
I221003
sg31
I319941
sg32
g5
sS'fraction_salary'
p1237
F0.6907617341947422
ssS'YEAGER F SCOTT'
p1238
(dp1239
g3
g5
sg4
g5
sS'fraction_exercised_stock_options'
p1240
F0.6990930736662875
sg7
I53947
sg8
I01
sg9
g5
sg10
S'scott.yeager@enron.com'
p1241
sg12
g5
sS'fraction_expenses'
p1242
F0.14972800444074383
sg14
g38
sg15
g5
sg39
g38
sg16
g5
sg17
g5
sg18
g5
sg19
I147950
sS'fraction_restricted_stock'
p1243
F0.30090692633371247
sg21
g5
sS'fraction_loan_advances'
p1244
F0.0
sg23
g5
sg24
I11884758
sg25
g5
sS'fraction_bonus'
p1245
F0.0
sg27
g5
sS'fraction_other'
p1246
F0.4106300305301138
sg29
I3576206
sg30
I158403
sg31
I360300
sg44
g38
sg32
I8308552
sS'fraction_salary'
p1247
F0.4396419650291424
ssS'HIRKO JOSEPH'
p1248
(dp1249
g3
g5
sg4
I10259
sS'fraction_exercised_stock_options'
p1250
F1.0
sg7
I77978
sg8
I01
sg9
g5
sg10
S'joe.hirko@enron.com'
p1251
sg12
g5
sS'fraction_expenses'
p1252
F0.8560262588782892
sg14
g38
sg15
g5
sg39
g38
sg16
g5
sg17
g5
sg18
g5
sg19
I2856
sS'fraction_restricted_stock'
p1253
F0.0
sg21
g5
sS'fraction_loan_advances'
p1254
F0.0
sg23
g5
sg24
I30766064
sg25
g5
sS'fraction_bonus'
p1255
F0.0
sg27
g5
sS'fraction_other'
p1256
F0.03135257374331727
sg29
g5
sg30
g5
sg31
I91093
sg44
g38
sg32
I30766064
sS'fraction_salary'
p1257
F0.0
ssS'DIETRICH JANET R'
p1258
(dp1259
g3
I2572
sg4
g5
sS'fraction_exercised_stock_options'
p1260
F0.8310706149364614
sg7
I3475
sg8
I00
sg9
g5
sg10
S'janet.dietrich@enron.com'
p1261
sg12
I556416
sS'fraction_expenses'
p1262
F0.0024637282482927606
sg14
F0.2222222222222222
sg15
g5
sg16
I1902
sg17
g5
sg18
I63
sg19
I473
sS'fraction_restricted_stock'
p1263
F0.16892938506353858
sg21
g5
sS'fraction_loan_advances'
p1264
F0.0
sg23
I600000
sg24
I1865087
sg25
I305
sS'fraction_bonus'
p1265
F0.4253919277627788
sg27
I14
sS'fraction_other'
p1266
F0.00033535063638632395
sg29
I315068
sg30
I250100
sg31
I1410464
sg32
I1550019
sS'fraction_salary'
p1267
F0.1773175352224516
ssS'DERRICK JR. JAMES V'
p1268
(dp1269
g3
I2181
sg4
g5
sS'fraction_exercised_stock_options'
p1270
F1.0
sg7
I51124
sg8
I00
sg9
I-1284000
sg10
S'james.derrick@enron.com'
p1271
sg12
I484000
sS'fraction_expenses'
p1272
F0.09278722859771935
sg14
F0.022002200220022004
sg15
I-1787380
sg16
I1401
sg17
g5
sg18
I909
sg19
I7482
sS'fraction_restricted_stock'
p1273
F0.20237744642638578
sg21
g5
sS'fraction_loan_advances'
p1274
F0.0
sg23
I800000
sg24
I8831913
sg25
I64
sS'fraction_bonus'
p1275
F1.4519556935720106
sg27
I20
sS'fraction_other'
p1276
F0.01357941562413223
sg29
I1787380
sg30
I492375
sg31
I550981
sg32
I8831913
sS'fraction_salary'
p1277
F0.8936333557781484
ssS'FREVERT MARK A'
p1278
(dp1279
g3
I3275
sg4
I6426990
sS'fraction_exercised_stock_options'
p1280
F0.713540281428528
sg7
I86987
sg8
I00
sg9
I-3367011
sg10
S'mark.frevert@enron.com'
p1281
sg12
I1617011
sS'fraction_expenses'
p1282
F0.005041985146526336
sg14
F0.2857142857142857
sg15
g5
sg16
I2979
sg17
I2000000
sg18
I21
sg19
I7427621
sS'fraction_restricted_stock'
p1283
F0.28645971857147207
sg21
g5
sS'fraction_loan_advances'
p1284
F0.1159250266482655
sg23
I2000000
sg24
I14622185
sg25
I242
sS'fraction_bonus'
p1285
F0.1159250266482655
sg27
I6
sS'fraction_other'
p1286
F0.4305235811791082
sg29
I4188667
sg30
I1060932
sg31
I17252530
sg32
I10433518
sS'fraction_salary'
p1287
F0.06149428518599881
ssS'PAI LOU L'
p1288
(dp1289
g3
g5
sg4
g5
sS'fraction_exercised_stock_options'
p1290
F0.6450672665508715
sg7
I32047
sg8
I00
sg9
g5
sg10
S'lou.pai@enron.com'
p1291
sg12
g5
sS'fraction_expenses'
p1292
F0.01026034911504609
sg14
g38
sg15
g5
sg39
g38
sg16
g5
sg17
g5
sg18
g5
sg19
I1829457
sS'fraction_restricted_stock'
p1293
F0.35493273344912846
sg21
g5
sS'fraction_loan_advances'
p1294
F0.0
sg23
I1000000
sg24
I23817930
sg25
g5
sS'fraction_bonus'
p1295
F0.3201656665224854
sg27
g5
sS'fraction_other'
p1296
F0.5857293197792266
sg29
I8453763
sg30
I261879
sg31
I3123383
sg44
g38
sg32
I15364167
sS'fraction_salary'
p1297
F0.08384466458324195
ssS'BAY FRANKLIN R'
p1298
(dp1299
g3
g5
sg4
I260455
sS'fraction_exercised_stock_options'
p1300
F0.0
sg7
I129142
sg8
I00
sg9
I-201641
sg10
S'frank.bay@enron.com'
p1301
sg12
g5
sS'fraction_expenses'
p1302
F0.15602588389940267
sg14
g38
sg15
I-82782
sg39
g38
sg16
g5
sg17
g5
sg18
g5
sg19
I69
sS'fraction_restricted_stock'
p1303
F2.3137080648744726
sg21
g5
sS'fraction_loan_advances'
p1304
F0.0
sg23
I400000
sg24
I63014
sg25
g5
sS'fraction_bonus'
p1305
F0.48326921961686414
sg27
g5
sS'fraction_other'
p1306
F8.336394038390907e-05
sg29
I145796
sg30
I239671
sg31
I827696
sg44
g38
sg32
g5
sS'fraction_salary'
p1307
F0.2895640428369836
ssS'HAYSLETT RODERICK J'
p1308
(dp1309
g3
I2649
sg4
g5
sS'fraction_exercised_stock_options'
p1310
F0.0
sg7
g5
sg8
I00
sg9
g5
sg10
S'rod.hayslett@enron.com'
p1311
sg12
g5
sS'fraction_expenses'
p1312
F0.0
sg14
F0.03581526861451461
sg15
g5
sg16
I571
sg17
g5
sg18
I1061
sg19
g5
sS'fraction_restricted_stock'
p1313
F1.0
sg21
g5
sS'fraction_loan_advances'
p1314
F0.0
sg23
g5
sg24
I346663
sg25
I35
sS'fraction_bonus'
p1315
F0.0
sg27
I38
sS'fraction_other'
p1316
F0.0
sg29
I346663
sg30
g5
sg31
g5
sg32
g5
sS'fraction_salary'
p1317
F0.0
ssS'FUGH JOHN L'
p1318
(dp1319
g3
g5
sg4
I50591
sS'fraction_exercised_stock_options'
p1320
F1.0
sg7
g5
sg8
I00
sg9
g5
sg10
g5
sg12
g5
sS'fraction_expenses'
p1321
F0.0
sg14
g38
sg15
g5
sg39
g38
sg16
g5
sg17
g5
sg18
g5
sg19
g5
sS'fraction_restricted_stock'
p1322
F0.0
sg21
g5
sS'fraction_loan_advances'
p1323
F0.0
sg23
g5
sg24
I176378
sg25
g5
sS'fraction_bonus'
p1324
F0.0
sg27
g5
sS'fraction_other'
p1325
F0.0
sg29
g5
sg30
g5
sg31
I50591
sg44
g38
sg32
I176378
sS'fraction_salary'
p1326
F0.0
ssS'FALLON JAMES B'
p1327
(dp1328
g3
I1755
sg4
g5
sS'fraction_exercised_stock_options'
p1329
F0.40312870996771993
sg7
I95924
sg8
I00
sg9
g5
sg10
S'jim.fallon@enron.com'
p1330
sg12
I374347
sS'fraction_expenses'
p1331
F0.026092254796890386
sg14
F0.49333333333333335
sg15
g5
sg16
I1604
sg17
g5
sg18
I75
sg19
I401481
sS'fraction_restricted_stock'
p1332
F0.5968712900322801
sg21
g5
sS'fraction_loan_advances'
p1333
F0.0
sg23
I2500000
sg24
I2332399
sg25
I42
sS'fraction_bonus'
p1334
F0.6800241544579664
sg27
I37
sS'fraction_other'
p1335
F0.10920671102237552
sg29
I1392142
sg30
I304588
sg31
I3676340
sg32
I940257
sS'fraction_salary'
p1336
F0.08285087886321722
ssS'KOENIG MARK E'
p1337
(dp1338
g3
I2374
sg4
g5
sS'fraction_exercised_stock_options'
p1339
F0.3498529990026327
sg7
I127017
sg8
I01
sg9
g5
sg10
S'mark.koenig@enron.com'
p1340
sg12
I300000
sS'fraction_expenses'
p1341
F0.08001469049483408
sg14
F0.2459016393442623
sg15
g5
sg16
I2271
sg17
g5
sg18
I61
sg19
I150458
sS'fraction_restricted_stock'
p1342
F0.6501470009973672
sg21
g5
sS'fraction_loan_advances'
p1343
F0.0
sg23
I700000
sg24
I1920055
sg25
I53
sS'fraction_bonus'
p1344
F0.44096682606567505
sg27
I15
sS'fraction_other'
p1345
F0.0947814095945562
sg29
I1248318
sg30
I309946
sg31
I1587421
sg32
I671737
sS'fraction_salary'
p1346
F0.19525129124535962
ssS'SAVAGE FRANK'
p1347
(dp1348
g3
g5
sg4
g5
sS'fraction_exercised_stock_options'
p1349
F0.0
sg7
g5
sg8
I00
sg9
I-121284
sg10
g5
sg12
g5
sS'fraction_expenses'
p1350
F0.0
sg14
g38
sg15
g5
sg39
g38
sg16
g5
sg17
g5
sg18
g5
sg19
g5
sS'fraction_restricted_stock'
p1351
F0.0
sg21
I125034
sS'fraction_loan_advances'
p1352
F0.0
sg23
g5
sg24
g5
sg25
g5
sS'fraction_bonus'
p1353
F0.0
sg27
g5
sS'fraction_other'
p1354
F0.0
sg29
g5
sg30
g5
sg31
I3750
sg44
g38
sg32
g5
sS'fraction_salary'
p1355
F0.0
ssS'IZZO LAWRENCE L'
p1356
(dp1357
g3
I496
sg4
g5
sS'fraction_exercised_stock_options'
p1358
F0.3720239588452194
sg7
I28093
sg8
I00
sg9
g5
sg10
S'larry.izzo@enron.com'
p1359
sg12
I312500
sS'fraction_expenses'
p1360
F0.014191279432773152
sg14
F0.2631578947368421
sg15
g5
sg16
I437
sg17
g5
sg18
I19
sg19
I1553729
sS'fraction_restricted_stock'
p1361
F0.6279760411547806
sg21
g5
sS'fraction_loan_advances'
p1362
F0.0
sg23
g5
sg24
I5819980
sg25
I28
sS'fraction_bonus'
p1363
F0.0
sg27
I5
sS'fraction_other'
p1364
F0.784871761712996
sg29
I3654808
sg30
I85274
sg31
I1979596
sg32
I2165172
sS'fraction_salary'
p1365
F0.043076466107225916
ssS'TILNEY ELIZABETH A'
p1366
(dp1367
g3
I460
sg4
g5
sS'fraction_exercised_stock_options'
p1368
F0.5061889897794771
sg7
g5
sg8
I00
sg9
I-575000
sg10
S'elizabeth.tilney@enron.com'
p1369
sg12
I275000
sS'fraction_expenses'
p1370
F0.0
sg14
F0.5789473684210527
sg15
g5
sg16
I379
sg17
g5
sg18
I19
sg19
I152055
sS'fraction_restricted_stock'
p1371
F0.4938110102205229
sg21
g5
sS'fraction_loan_advances'
p1372
F0.0
sg23
I300000
sg24
I1168042
sg25
I10
sS'fraction_bonus'
p1373
F0.7511398547295521
sg27
I11
sS'fraction_other'
p1374
F0.3807152353696735
sg29
I576792
sg30
I247338
sg31
I399393
sg32
I591250
sS'fraction_salary'
p1375
F0.6192847646303266
ssS'MARTIN AMANDA K'
p1376
(dp1377
g3
I1522
sg4
I85430
sS'fraction_exercised_stock_options'
p1378
F1.0
sg7
I8211
sg8
I00
sg9
g5
sg10
S'a..martin@enron.com'
p1379
sg12
I5145434
sS'fraction_expenses'
p1380
F0.0009766842361189749
sg14
F0.0
sg15
g5
sg16
I477
sg17
g5
sg18
I230
sg19
I2818454
sS'fraction_restricted_stock'
p1381
F0.0
sg21
g5
sS'fraction_loan_advances'
p1382
F0.0
sg23
g5
sg24
I2070306
sg25
I8
sS'fraction_bonus'
p1383
F0.0
sg27
I0
sS'fraction_other'
p1384
F0.3352502243364352
sg29
g5
sg30
I349487
sg31
I8407016
sg32
I2070306
sS'fraction_salary'
p1385
F0.04157087366076144
ssS'BUY RICHARD B'
p1386
(dp1387
g3
I3523
sg4
I649584
sS'fraction_exercised_stock_options'
p1388
F0.7382305550636237
sg7
g5
sg8
I00
sg9
I-694862
sg10
S'rick.buy@enron.com'
p1389
sg12
I769862
sS'fraction_expenses'
p1390
F0.0
sg14
F0.06742640075973409
sg15
g5
sg16
I2333
sg17
g5
sg18
I1053
sg19
I400572
sS'fraction_restricted_stock'
p1391
F0.26176944493637627
sg21
g5
sS'fraction_loan_advances'
p1392
F0.0
sg23
I900000
sg24
I3444470
sg25
I156
sS'fraction_bonus'
p1393
F0.38205171961479
sg27
I71
sS'fraction_other'
p1394
F0.17004357936615072
sg29
I901657
sg30
I330546
sg31
I2355702
sg32
I2542813
sS'fraction_salary'
p1395
F0.14031740856865596
ssS'GRAMM WENDY L'
p1396
(dp1397
g3
g5
sg4
g5
sS'fraction_exercised_stock_options'
p1398
F0.0
sg7
g5
sg8
I00
sg9
g5
sg10
g5
sg12
g5
sS'fraction_expenses'
p1399
F0.0
sg14
g38
sg15
g5
sg39
g38
sg16
g5
sg17
g5
sg18
g5
sg19
g5
sS'fraction_restricted_stock'
p1400
F0.0
sg21
I119292
sS'fraction_loan_advances'
p1401
F0.0
sg23
g5
sg24
g5
sg25
g5
sS'fraction_bonus'
p1402
F0.0
sg27
g5
sS'fraction_other'
p1403
F0.0
sg29
g5
sg30
g5
sg31
I119292
sg44
g38
sg32
g5
sS'fraction_salary'
p1404
F0.0
ssS'CAUSEY RICHARD A'
p1405
(dp1406
g3
I1892
sg4
g5
sS'fraction_exercised_stock_options'
p1407
F0.0
sg7
I30674
sg8
I01
sg9
I-235000
sg10
S'richard.causey@enron.com'
p1408
sg12
I350000
sS'fraction_expenses'
p1409
F0.016414110334243386
sg14
F0.24489795918367346
sg15
g5
sg16
I1585
sg17
g5
sg18
I49
sg19
I307895
sS'fraction_restricted_stock'
p1410
F1.0
sg21
g5
sS'fraction_loan_advances'
p1411
F0.0
sg23
I1000000
sg24
I2502063
sg25
I58
sS'fraction_bonus'
p1412
F0.5351147660638778
sg27
I12
sS'fraction_other'
p1413
F0.16475916089723763
sg29
I2502063
sg30
I415189
sg31
I1868758
sg32
g5
sS'fraction_salary'
p1414
F0.22217376460729532
ssS'TAYLOR MITCHELL S'
p1415
(dp1416
g3
I533
sg4
I227449
sS'fraction_exercised_stock_options'
p1417
F0.849455067064561
sg7
g5
sg8
I00
sg9
g5
sg10
S'mitchell.taylor@enron.com'
p1418
sg12
g5
sS'fraction_expenses'
p1419
F0.0
sg14
F0.0
sg15
g5
sg16
I300
sg17
g5
sg18
I29
sg19
g5
sS'fraction_restricted_stock'
p1420
F0.15054493293543902
sg21
g5
sS'fraction_loan_advances'
p1421
F0.0
sg23
I600000
sg24
I3745048
sg25
I0
sS'fraction_bonus'
p1422
F0.5491171568910085
sg27
I0
sS'fraction_other'
p1423
F0.0
sg29
I563798
sg30
I265214
sg31
I1092663
sg32
I3181250
sS'fraction_salary'
p1424
F0.24272259607948654
ssS'DONAHUE JR JEFFREY M'
p1425
(dp1426
g3
I865
sg4
g5
sS'fraction_exercised_stock_options'
p1427
F0.7085370050361336
sg7
I96268
sg8
I00
sg9
I-300000
sg10
S'jeff.donahue@enron.com'
p1428
sg12
g5
sS'fraction_expenses'
p1429
F0.1099250936329588
sg14
F0.5
sg15
g5
sg16
I772
sg17
g5
sg18
I22
sg19
I891
sS'fraction_restricted_stock'
p1430
F0.2914629949638664
sg21
g5
sS'fraction_loan_advances'
p1431
F0.0
sg23
I800000
sg24
I1080988
sg25
I188
sS'fraction_bonus'
p1432
F0.9134922809902256
sg27
I11
sS'fraction_other'
p1433
F0.0010174020279528637
sg29
I315068
sg30
I278601
sg31
I875760
sg32
I765920
sS'fraction_salary'
p1434
F0.3181248287201973
ssS'GLISAN JR BEN F'
p1435
(dp1436
g3
I873
sg4
g5
sS'fraction_exercised_stock_options'
p1437
F0.49416219465516487
sg7
I125978
sg8
I01
sg9
g5
sg10
S'ben.glisan@enron.com'
p1438
sg12
I71023
sS'fraction_expenses'
p1439
F0.09901720056213864
sg14
F0.375
sg15
g5
sg16
I874
sg17
g5
sg18
I16
sg19
I200308
sS'fraction_restricted_stock'
p1440
F0.5058378053448351
sg21
g5
sS'fraction_loan_advances'
p1441
F0.0
sg23
I600000
sg24
I778546
sg25
I52
sS'fraction_bonus'
p1442
F0.4715928204709012
sg27
I6
sS'fraction_other'
p1443
F0.1574396911381421
sg29
I393818
sg30
I274975
sg31
I1272284
sg32
I384728
sS'fraction_salary'
p1444
F0.21612705968164342
ss.