(lp0
S'poi'
p1
aS'to_messages'
p2
aS'deferral_payments'
p3
aS'expenses'
p4
aS'deferred_income'
p5
aS'long_term_incentive'
p6
aS'shared_receipt_with_poi'
p7
aS'from_messages'
p8
aS'other'
p9
aS'bonus'
p10
aS'total_stock_value'
p11
aS'from_poi_to_this_person'
p12
aS'from_this_person_to_poi'
p13
aS'restricted_stock'
p14
aS'salary'
p15
aS'total_payments'
p16
aS'poi_email_to_fraction'
p17
aS'exercised_stock_options'
p18
a.